(dp1
S'node'
p2
(dp3
S'PEDOTF_1'
p4
(dp5
S'attrs'
p6
(lp7
ccopy_reg
_reconstructor
p8
(clib.chemicalGraph.molecule.Molecule
Molecule
p9
c__builtin__
object
p10
NtRp11
(dp12
g2
(dp13
I1
(dp14
g6
(lp15
g8
(clib.chemicalGraph.molecule.AtomAttributes
AtomAttributes
p16
g10
NtRp17
(dp18
S'_info'
p19
g8
(clib.chemicalGraph.molecule.AtomAttributes
AtomInfo
p20
g10
NtRp21
(dp22
S'_type'
p23
S'C3'
p24
sS'_res_seq'
p25
I1
sS'_charge'
p26
F0.1236844857709713
sS'_chain'
p27
S'A'
sS'_element'
p28
S'C'
sS'_residue'
p29
S'LIG'
p30
sS'_name'
p31
S'C3'
p32
sS'_mass'
p33
F12.0107
sS'_fullname'
p34
S'Carbon'
p35
sbsS'_coordinates'
p36
cnumpy.core.multiarray
_reconstruct
p37
(cnumpy
ndarray
p38
(I0
tS'b'
tRp39
(I1
(I3
tcnumpy
dtype
p40
(S'f8'
I0
I1
tRp41
(I3
S'<'
NNNI-1
I-1
I0
tbI00
S't\xa4O\xe6\xc3?\x08\xc0\xb0\x9elv\xc2\xe2\x0e@z\x9b\x95\xbd|\x1b\xc8?'
tbsS'_attributes'
p42
(lp43
sbassI2
(dp44
g6
(lp45
g8
(g16
g10
NtRp46
(dp47
g19
g8
(g20
g10
NtRp48
(dp49
g23
S'O3'
p50
sg25
I1
sg26
F-0.48440175411088104
sg27
S'A'
sg28
S'O'
sg29
S'LIG'
p51
sg31
S'O3'
p52
sg33
F15.9994
sg34
S'Oxygen'
p53
sbsg36
g37
(g38
(I0
tS'b'
tRp54
(I1
(I3
tg41
I00
S'T\xf4\xdc}2R\x01\xc0XO6;aq\x11@z\x9b\x95\xbd|\x1b\xc8?'
tbsg42
(lp55
sbassI3
(dp56
g6
(lp57
g8
(g16
g10
NtRp58
(dp59
g19
g8
(g20
g10
NtRp60
(dp61
g23
S'Car'
p62
sg25
I1
sg26
F0.16905660838683761
sg27
S'A'
sg28
S'C'
sg29
S'LIG'
p63
sg31
S'Car'
p64
sg33
F12.0107
sg34
S'Carbon'
p65
sbsg36
g37
(g38
(I0
tS'b'
tRp66
(I1
(I3
tg41
I00
S'\xf7\xdbHO\xd9\xc8\xf4\xbf\xb0\x9elv\xc2\xe2\x0e@z\x9b\x95\xbd|\x1b\xc8?'
tbsg42
(lp67
sbassI4
(dp68
g6
(lp69
g8
(g16
g10
NtRp70
(dp71
g19
g8
(g20
g10
NtRp72
(dp73
g23
S'Car'
p74
sg25
I1
sg26
F0.021159750210021706
sg27
S'A'
sg28
S'C'
sg29
S'LIG'
p75
sg31
S'Car'
p76
sg33
F12.0107
sg34
S'Carbon'
p77
sbsg36
g37
(g38
(I0
tS'b'
tRp78
(I1
(I3
tg41
I00
S',\x06E\xcb\xda\x94\xd6\xbf\xb8\xac\x12\x82d\xa9\x10@z\x9b\x95\xbd|\x1b\xc8?'
tbsg42
(lp79
sbassI5
(dp80
g6
(lp81
g8
(g16
g10
NtRp82
(dp83
g19
g8
(g20
g10
NtRp84
(dp85
g23
S'S2'
p86
sg25
I1
sg26
F-0.09760588088754725
sg27
S'A'
sg28
S'S'
sg29
S'LIG'
p87
sg31
S'S2'
p88
sg33
F32.064999999999998
sg34
S'Sulfur'
p89
sbsg36
g37
(g38
(I0
tS'b'
tRp90
(I1
(I3
tg41
I00
S'\x08\xfdn\n\xb2\x89\xcd?\xb0\x9elv\xc2\xe2\n@z\x9b\x95\xbd|\x1b\xc8?'
tbsg42
(lp91
sbassI6
(dp92
g6
(lp93
g8
(g16
g10
NtRp94
(dp95
g19
g8
(g20
g10
NtRp96
(dp97
g23
S'Car'
p98
sg25
I1
sg26
F0.02115975021002171
sg27
S'A'
sg28
S'C'
sg29
S'LIG'
p99
sg31
S'Car'
p100
sg33
F12.0107
sg34
S'Carbon'
p101
sbsg36
g37
(g38
(I0
tS'b'
tRp102
(I1
(I3
tg41
I00
S',\x06E\xcb\xda\x94\xd6\xbf\xe0\xe3\xb3\xe8\xbbr\x04@z\x9b\x95\xbd|\x1b\xc8?'
tbsg42
(lp103
sbassI7
(dp104
g6
(lp105
g8
(g16
g10
NtRp106
(dp107
g19
g8
(g20
g10
NtRp108
(dp109
g23
S'Car'
p110
sg25
I1
sg26
F0.16905660838683767
sg27
S'A'
sg28
S'C'
sg29
S'LIG'
p111
sg31
S'Car'
p112
sg33
F12.0107
sg34
S'Carbon'
p113
sbsg36
g37
(g38
(I0
tS'b'
tRp114
(I1
(I3
tg41
I00
S'\xf7\xdbHO\xd9\xc8\xf4\xbf\xb0\x9elv\xc2\xe2\x06@z\x9b\x95\xbd|\x1b\xc8?'
tbsg42
(lp115
sbassI8
(dp116
g6
(lp117
g8
(g16
g10
NtRp118
(dp119
g19
g8
(g20
g10
NtRp120
(dp121
g23
S'O3'
p122
sg25
I1
sg26
F-0.48440175411088104
sg27
S'A'
sg28
S'O'
sg29
S'LIG'
p123
sg31
S'O3'
p124
sg33
F15.9994
sg34
S'Oxygen'
p125
sbsg36
g37
(g38
(I0
tS'b'
tRp126
(I1
(I3
tg41
I00
S'T\xf4\xdc}2R\x01\xc0\xb0\x9elv\xc2\xe2\x02@z\x9b\x95\xbd|\x1b\xc8?'
tbsg42
(lp127
sbassI9
(dp128
g6
(lp129
g8
(g16
g10
NtRp130
(dp131
g19
g8
(g20
g10
NtRp132
(dp133
g23
S'C3'
p134
sg25
I1
sg26
F0.1236844857709713
sg27
S'A'
sg28
S'C'
sg29
S'LIG'
p135
sg31
S'C3'
p136
sg33
F12.0107
sg34
S'Carbon'
p137
sbsg36
g37
(g38
(I0
tS'b'
tRp138
(I1
(I3
tg41
I00
S't\xa4O\xe6\xc3?\x08\xc0\xb0\x9elv\xc2\xe2\x06@z\x9b\x95\xbd|\x1b\xc8?'
tbsg42
(lp139
sbassI10
(dp140
g6
(lp141
g8
(g16
g10
NtRp142
(dp143
g19
g8
(g20
g10
NtRp144
(dp145
g23
S'HC'
p146
sg25
I1
sg26
F0.073086949756644315
sg27
S'A'
sg28
S'H'
sg29
S'LIG'
p147
sg31
S'HC'
p148
sg33
F1.0079400000000001
sg34
S'Hydrogen'
p149
sbsg36
g37
(g38
(I0
tS'b'
tRp150
(I1
(I3
tg41
I00
S'\xc6~kb%\xf2\t\xc0\x88\xe8`S\xf6\xc5\x11@z\x9b\x95\xbd|\x1b\xc8?'
tbsg42
(lp151
sbassI11
(dp152
g6
(lp153
g8
(g16
g10
NtRp154
(dp155
g19
g8
(g20
g10
NtRp156
(dp157
g23
S'HC'
p158
sg25
I1
sg26
F0.073086949756644315
sg27
S'A'
sg28
S'H'
sg29
S'LIG'
p159
sg31
S'HC'
p160
sg33
F1.0079400000000001
sg34
S'Hydrogen'
p161
sbsg36
g37
(g38
(I0
tS'b'
tRp162
(I1
(I3
tg41
I00
S'\xaa$\x07\'F"\r\xc0\xe0b\x1e\xa50\x06\x0e@z\x9b\x95\xbd|\x1b\xc8?'
tbsg42
(lp163
sbassI12
(dp164
g6
(lp165
g8
(g16
g10
NtRp166
(dp167
g19
g8
(g20
g10
NtRp168
(dp169
g23
S'HC'
p170
sg25
I1
sg26
F0.073129950673535393
sg27
S'A'
sg28
S'H'
sg29
S'LIG'
p171
sg31
S'HC'
p172
sg33
F1.0079400000000001
sg34
S'Hydrogen'
p173
sbsg36
g37
(g38
(I0
tS'b'
tRp174
(I1
(I3
tg41
I00
S'88\xef\xaf\x97\x82\xc4\xbfl\xb9\x83.\xf0\x04\x13@z\x9b\x95\xbd|\x1b\xc8?'
tbsg42
(lp175
sbassI14
(dp176
g6
(lp177
g8
(g16
g10
NtRp178
(dp179
g19
g8
(g20
g10
NtRp180
(dp181
g23
S'HC'
p182
sg25
I1
sg26
F0.073086949756644315
sg27
S'A'
sg28
S'H'
sg29
S'LIG'
p183
sg31
S'HC'
p184
sg33
F1.0079400000000001
sg34
S'Hydrogen'
p185
sbsg36
g37
(g38
(I0
tS'b'
tRp186
(I1
(I3
tg41
I00
S'\xaa$\x07\'F"\r\xc0\x80\xda\xbaGT\xbf\x07@z\x9b\x95\xbd|\x1b\xc8?'
tbsg42
(lp187
sbassI15
(dp188
g6
(lp189
g8
(g16
g10
NtRp190
(dp191
g19
g8
(g20
g10
NtRp192
(dp193
g23
S'HC'
p194
sg25
I1
sg26
F0.073086949756644315
sg27
S'A'
sg28
S'H'
sg29
S'LIG'
p195
sg31
S'HC'
p196
sg33
F1.0079400000000001
sg34
S'Hydrogen'
p197
sbsg36
g37
(g38
(I0
tS'b'
tRp198
(I1
(I3
tg41
I00
S'\xc6~kb%\xf2\t\xc0Pl\x17F\x989\x02@z\x9b\x95\xbd|\x1b\xc8?'
tbsg42
(lp199
sbassI16
(dp200
g6
(lp201
g8
(g16
g10
NtRp202
(dp203
g19
g8
(g20
g10
NtRp204
(dp205
g23
g24
sg25
I1
sg26
F0.1236844857709713
sg27
S'A'
sg28
S'C'
sg29
g30
sg31
g32
sg33
F12.0107
sg34
g35
sbsg36
g37
(g38
(I0
tS'b'
tRp206
(I1
(I3
tg40
(S'f8'
I0
I1
tRp207
(I3
S'<'
NNNI-1
I-1
I0
tbI00
S'\x98\xe1\xfe\xba\xa9\x1d\x07@`\xc9\xbb\xb0\rP\xf6?\xc6\xc3w\x07\x12F\xcb?'
tbsg42
(lp208
sbassI17
(dp209
g6
(lp210
g8
(g16
g10
NtRp211
(dp212
g19
g8
(g20
g10
NtRp213
(dp214
g23
g50
sg25
I1
sg26
F-0.48440175411088104
sg27
S'A'
sg28
S'O'
sg29
g51
sg31
g52
sg33
F15.9994
sg34
g53
sbsg36
g37
(g38
(I0
tS'b'
tRp215
(I1
(I3
tg207
I00
S'\x801\x8cR\x180\x00@`\xc9\xbb\xb0\rP\xfe?\x96\xc3w\x07\x12F\xcb?'
tbsg42
(lp216
sbassI18
(dp217
g6
(lp218
g8
(g16
g10
NtRp219
(dp220
g19
g8
(g20
g10
NtRp221
(dp222
g23
g62
sg25
I1
sg26
F0.16905660838683761
sg27
S'A'
sg28
S'C'
sg29
g63
sg31
g64
sg33
F12.0107
sg34
g65
sbsg36
g37
(g38
(I0
tS'b'
tRp223
(I1
(I3
tg207
I00
S'MV\xa7\xf8\xa4\x84\xf2?`\xc9\xbb\xb0\rP\xf6?\xc2\xc3w\x07\x12F\xcb?'
tbsg42
(lp224
sbassI19
(dp225
g6
(lp226
g8
(g16
g10
NtRp227
(dp228
g19
g8
(g20
g10
NtRp229
(dp230
g23
g74
sg25
I1
sg26
F0.021159750210021706
sg27
S'A'
sg28
S'C'
sg29
g75
sg31
g76
sg33
F12.0107
sg34
g77
sbsg36
g37
(g38
(I0
tS'b'
tRp231
(I1
(I3
tg207
I00
S'(\xdf}\xe1\x12\x08\xcb?\xe0>-\xcc\x1a0\xfb?\xb2\xc3w\x07\x12F\xcb?'
tbsg42
(lp232
sbassI20
(dp233
g6
(lp234
g8
(g16
g10
NtRp235
(dp236
g19
g8
(g20
g10
NtRp237
(dp238
g23
g86
sg25
I1
sg26
F-0.09760588088754725
sg27
S'A'
sg28
S'S'
sg29
g87
sg31
g88
sg33
F32.064999999999998
sg34
g89
sbsg36
g37
(g38
(I0
tS'b'
tRp239
(I1
(I3
tg207
I00
S'\xfc\x94\xbd_\xaa\xd5\xd7\xbf\xc0\x92wa\x1b\xa0\xec?\x96\xc3w\x07\x12F\xcb?'
tbsg42
(lp240
sbassI21
(dp241
g6
(lp242
g8
(g16
g10
NtRp243
(dp244
g19
g8
(g20
g10
NtRp245
(dp246
g23
g98
sg25
I1
sg26
F0.02115975021002171
sg27
S'A'
sg28
S'C'
sg29
g99
sg31
g100
sg33
F12.0107
sg34
g101
sbsg36
g37
(g38
(I0
tS'b'
tRp247
(I1
(I3
tg207
I00
S'(\xdf}\xe1\x12\x08\xcb?\x00<\xa5T\t\x00\xb7?\xb2\xc3w\x07\x12F\xcb?'
tbsg42
(lp248
sbassI22
(dp249
g6
(lp250
g8
(g16
g10
NtRp251
(dp252
g19
g8
(g20
g10
NtRp253
(dp254
g23
g110
sg25
I1
sg26
F0.16905660838683767
sg27
S'A'
sg28
S'C'
sg29
g111
sg31
g112
sg33
F12.0107
sg34
g113
sbsg36
g37
(g38
(I0
tS'b'
tRp255
(I1
(I3
tg207
I00
S'MV\xa7\xf8\xa4\x84\xf2?@%\xef\xc26@\xd9?\xc2\xc3w\x07\x12F\xcb?'
tbsg42
(lp256
sbassI23
(dp257
g6
(lp258
g8
(g16
g10
NtRp259
(dp260
g19
g8
(g20
g10
NtRp261
(dp262
g23
g122
sg25
I1
sg26
F-0.48440175411088104
sg27
S'A'
sg28
S'O'
sg29
g123
sg31
g124
sg33
F15.9994
sg34
g125
sbsg36
g37
(g38
(I0
tS'b'
tRp263
(I1
(I3
tg207
I00
S'\x801\x8cR\x180\x00@\x00kC\xf4$\xff\xba\xbf\x96\xc3w\x07\x12F\xcb?'
tbsg42
(lp264
sbassI24
(dp265
g6
(lp266
g8
(g16
g10
NtRp267
(dp268
g19
g8
(g20
g10
NtRp269
(dp270
g23
g134
sg25
I1
sg26
F0.1236844857709713
sg27
S'A'
sg28
S'C'
sg29
g135
sg31
g136
sg33
F12.0107
sg34
g137
sbsg36
g37
(g38
(I0
tS'b'
tRp271
(I1
(I3
tg207
I00
S'\x98\xe1\xfe\xba\xa9\x1d\x07@@%\xef\xc26@\xd9?\xc6\xc3w\x07\x12F\xcb?'
tbsg42
(lp272
sbassI25
(dp273
g6
(lp274
g8
(g16
g10
NtRp275
(dp276
g19
g8
(g20
g10
NtRp277
(dp278
g23
g146
sg25
I1
sg26
F0.073086949756644315
sg27
S'A'
sg28
S'H'
sg29
g147
sg31
g148
sg33
F1.0079400000000001
sg34
g149
sbsg36
g37
(g38
(I0
tS'b'
tRp279
(I1
(I3
tg207
I00
S'\xf0\xbb\x1a7\x0b\xd0\x08@ .f\x11b\xa2\xff?\xb2\xc3w\x07\x12F\xcb?'
tbsg42
(lp280
sbassI26
(dp281
g6
(lp282
g8
(g16
g10
NtRp283
(dp284
g19
g8
(g20
g10
NtRp285
(dp286
g23
g158
sg25
I1
sg26
F0.073086949756644315
sg27
S'A'
sg28
S'H'
sg29
g159
sg31
g160
sg33
F1.0079400000000001
sg34
g161
sbsg36
g37
(g38
(I0
tS'b'
tRp287
(I1
(I3
tg207
I00
S'\xd0a\xb6\xfb+\x00\x0c@\xc0Q\x1f\x0e\xea\x96\xf4?\xca\xc3w\x07\x12F\xcb?'
tbsg42
(lp288
sbassI29
(dp289
g6
(lp290
g8
(g16
g10
NtRp291
(dp292
g19
g8
(g20
g10
NtRp293
(dp294
g23
g182
sg25
I1
sg26
F0.073086949756644315
sg27
S'A'
sg28
S'H'
sg29
g183
sg31
g184
sg33
F1.0079400000000001
sg34
g185
sbsg36
g37
(g38
(I0
tS'b'
tRp295
(I1
(I3
tg207
I00
S'\xd0a\xb6\xfb+\x00\x0c@\xe0\x81\xb0\xa6b\x12\xe0?\xca\xc3w\x07\x12F\xcb?'
tbsg42
(lp296
sbassI30
(dp297
g6
(lp298
g8
(g16
g10
NtRp299
(dp300
g19
g8
(g20
g10
NtRp301
(dp302
g23
g194
sg25
I1
sg26
F0.073086949756644315
sg27
S'A'
sg28
S'H'
sg29
g195
sg31
g196
sg33
F1.0079400000000001
sg34
g197
sbsg36
g37
(g38
(I0
tS'b'
tRp303
(I1
(I3
tg207
I00
S'\xf0\xbb\x1a7\x0b\xd0\x08@\x80\xdbt\x7f5\x12\xc8\xbf\xb2\xc3w\x07\x12F\xcb?'
tbsg42
(lp304
sbasssS'atomTypesTable'
p305
(dp306
sS'solvent'
p307
I00
sS'matrix'
p308
(lp309
(lp310
I1
aI0
aI0
aI0
aa(lp311
I0
aI1
aI0
aI0
aa(lp312
I0
aI0
aI1
aI0
aa(lp313
I0
aI0
aI0
aI1
aasS'graph'
p314
(dp315
sg31
S'PEDOTF'
p316
sS'edge'
p317
(dp318
I1
(dp319
I9
(dp320
sI2
(dp321
sI11
(dp322
sI10
(dp323
ssI2
(dp324
I1
g321
sI3
(dp325
ssI3
(dp326
I2
g325
sI4
(dp327
sI7
(dp328
ssI4
(dp329
I3
g327
sI12
(dp330
sI5
(dp331
ssI5
(dp332
I4
g331
sI6
(dp333
ssI6
(dp334
I19
(dp335
sI5
g333
sI7
(dp336
ssI7
(dp337
I8
(dp338
sI3
g328
sI6
g336
ssI8
(dp339
I9
(dp340
sI7
g338
ssI9
(dp341
I8
g340
sI1
g320
sI14
(dp342
sI15
(dp343
ssI10
(dp344
I1
g323
ssI11
(dp345
I1
g322
ssI12
(dp346
I4
g330
ssI14
(dp347
I9
g342
ssI15
(dp348
I9
g343
ssI16
(dp349
I24
(dp350
sI17
(dp351
sI26
(dp352
sI25
(dp353
ssI17
(dp354
I16
g351
sI18
(dp355
ssI18
(dp356
I17
g355
sI19
(dp357
sI22
(dp358
ssI19
(dp359
I18
g357
sI20
(dp360
sI6
g335
ssI20
(dp361
I19
g360
sI21
(dp362
ssI21
(dp363
I20
g362
sI22
(dp364
ssI22
(dp365
I18
g358
sI21
g364
sI23
(dp366
ssI23
(dp367
I24
(dp368
sI22
g366
ssI24
(dp369
I16
g350
sI29
(dp370
sI30
(dp371
sI23
g368
ssI25
(dp372
I16
g353
ssI26
(dp373
I16
g352
ssI29
(dp374
I24
g370
ssI30
(dp375
I24
g371
sssS'forceField'
p376
g8
(clib.chemicalGraph.molecule.ForceField
ForceField
p377
g10
NtRp378
(dp379
S'_MASS'
p380
(dp381
sS'_IMPROPER'
p382
(dp383
sS'_HBONDS'
p384
(dp385
sS'filename'
p386
NsS'_BONDS'
p387
(dp388
(g24
g50
tp389
(lp390
F525
aF1.26
as(g74
g86
tp391
(lp392
F230
aF1.78
as(g62
g50
tp393
(lp394
F525
aF1.26
as(g62
g74
tp395
(lp396
F305
aF1.375
as(g24
g158
tp397
(lp398
F340
aF1.0800000000000001
as(g24
g134
tp399
(lp400
F305
aF1.375
as(g74
g170
tp401
(lp402
F340
aF1.0800000000000001
assS'_ANGLES'
p403
(dp404
(g24
g50
g62
tp405
(lp406
F0
aF0
as(g62
g74
g170
tp407
(lp408
F30
aF120
as(g134
g24
g158
tp409
(lp410
F30
aF120
as(g74
g62
g50
tp411
(lp412
F40
aF120
as(g158
g24
g146
tp413
(lp414
F0
aF0
as(g158
g24
g50
tp415
(lp416
F0
aF0
as(g110
g62
g74
tp417
(lp418
F40
aF120
as(g134
g24
g50
tp419
(lp420
F40
aF120
as(g62
g74
g86
tp421
(lp422
F10
aF122.3
as(g98
g86
g74
tp423
(lp424
F0
aF0
as(g170
g74
g86
tp425
(lp426
F0
aF0
assS'_NONBONDED'
p427
(dp428
S'C3'
p429
(lp430
F-0.070000000000000007
aF1.9923999999999999
aF0.1236844857709713
asS'Car'
p431
(lp432
F-0.070000000000000007
aF1.9923999999999999
aF0.16905660838683767
asS'O3'
p433
(lp434
F-0.12
aF1.75
aF-0.48440175411088104
asS'S2'
p435
(lp436
F-0.46999999999999997
aF2.1000000000000001
aF-0.09760588088754725
asS'HC'
p437
(lp438
F-0.029999999999999999
aF1.3582000000000001
aF0.073086949756644315
assS'molname'
p439
S'(molecule)'
p440
sS'_DIHEDRALS'
p441
(dp442
(g122
g110
g62
g50
tp443
(lp444
F0
aI0
aF0
as(g74
g62
g110
g122
tp445
(lp446
F3.1000000000000001
aI2
aF180
as(g62
g50
g24
g158
tp447
(lp448
F0
aI0
aF0
as(g158
g24
g134
g182
tp449
(lp450
F2.3999999999999999
aI2
aF180
as(g98
g86
g74
g170
tp451
(lp452
F0
aI0
aF0
as(g110
g62
g74
g170
tp453
(lp454
F4.2000000000000002
aI2
aF180
as(g98
g110
g62
g74
tp455
(lp456
F3.1000000000000001
aI2
aF180
as(g24
g50
g62
g74
tp457
(lp458
F0
aI0
aF0
as(g86
g98
g74
g86
tp459
(lp460
F0
aI0
aF0
as(g158
g24
g134
g122
tp461
(lp462
F2.3999999999999999
aI2
aF180
as(g134
g24
g50
g62
tp463
(lp464
F0
aI0
aF0
as(g110
g62
g74
g86
tp465
(lp466
F3.1000000000000001
aI2
aF180
as(g170
g74
g62
g50
tp467
(lp468
F2.3999999999999999
aI2
aF180
as(g122
g134
g24
g50
tp469
(lp470
F0
aI0
aF0
as(g62
g74
g86
g98
tp471
(lp472
F0
aI0
aF0
as(g50
g62
g74
g86
tp473
(lp474
F0
aI0
aF0
assbsS'adj'
p475
g318
sbassS'PEDOT_1'
p476
(dp477
g6
(lp478
g8
(g9
g10
NtRp479
(dp480
g2
(dp481
I1
(dp482
g6
(lp483
g8
(g16
g10
NtRp484
(dp485
g19
g8
(g20
g10
NtRp486
(dp487
g23
g24
sg25
I1
sg26
F0.1236844857709713
sg27
S'A'
sg28
S'C'
sg29
g30
sg31
g32
sg33
F12.0107
sg34
g35
sbsg36
g37
(g38
(I0
tS'b'
tRp488
(I1
(I3
tg41
I00
S'~5m\xd6\xe1\x18\t\xc0\x14\x81\xe8\xbdx\xbd\r@: \xc1@\xa4P\xae?'
tbsg42
(lp489
sbassI2
(dp490
g6
(lp491
g8
(g16
g10
NtRp492
(dp493
g19
g8
(g20
g10
NtRp494
(dp495
g23
g50
sg25
I1
sg26
F-0.48440175411088104
sg27
S'A'
sg28
S'O'
sg29
g51
sg31
g52
sg33
F15.9994
sg34
g53
sbsg36
g37
(g38
(I0
tS'b'
tRp496
(I1
(I3
tg41
I00
S'^\x85\xfamP+\x02\xc0\x8a@\xf4^\xbc\xde\x10@: \xc1@\xa4P\xae?'
tbsg42
(lp497
sbassI3
(dp498
g6
(lp499
g8
(g16
g10
NtRp500
(dp501
g19
g8
(g20
g10
NtRp502
(dp503
g23
g62
sg25
I1
sg26
F0.16905660838683761
sg27
S'A'
sg28
S'C'
sg29
g63
sg31
g64
sg33
F12.0107
sg34
g65
sbsg36
g37
(g38
(I0
tS'b'
tRp504
(I1
(I3
tg41
I00
S'\x0c\xfe\x83/\x15{\xf6\xbf\x14\x81\xe8\xbdx\xbd\r@: \xc1@\xa4P\xae?'
tbsg42
(lp505
sbassI4
(dp506
g6
(lp507
g8
(g16
g10
NtRp508
(dp509
g19
g8
(g20
g10
NtRp510
(dp511
g23
g74
sg25
I1
sg26
F0.021159750210021706
sg27
S'A'
sg28
S'C'
sg29
g75
sg31
g76
sg33
F12.0107
sg34
g77
sbsg36
g37
(g38
(I0
tS'b'
tRp512
(I1
(I3
tg41
I00
S'\x81\x8e1L\xca]\xdd\xbf\xee\x9d\xd0\xa5\xbf\x16\x10@: \xc1@\xa4P\xae?'
tbsg42
(lp513
sbassI5
(dp514
g6
(lp515
g8
(g16
g10
NtRp516
(dp517
g19
g8
(g20
g10
NtRp518
(dp519
g23
g86
sg25
I1
sg26
F-0.09760588088754725
sg27
S'A'
sg28
S'S'
sg29
g87
sg31
g88
sg33
F32.064999999999998
sg34
g89
sbsg36
g37
(g38
(I0
tS'b'
tRp520
(I1
(I3
tg41
I00
S'\xbd\xd8+\x11\xa6\xef\xbf?\x14\x81\xe8\xbdx\xbd\t@: \xc1@\xa4P\xae?'
tbsg42
(lp521
sbassI6
(dp522
g6
(lp523
g8
(g16
g10
NtRp524
(dp525
g19
g8
(g20
g10
NtRp526
(dp527
g23
g98
sg25
I1
sg26
F0.02115975021002171
sg27
S'A'
sg28
S'C'
sg29
g99
sg31
g100
sg33
F12.0107
sg34
g101
sbsg36
g37
(g38
(I0
tS'b'
tRp528
(I1
(I3
tg41
I00
S'\x81\x8e1L\xca]\xdd\xbfL\xc6/0rM\x03@: \xc1@\xa4P\xae?'
tbsg42
(lp529
sbassI7
(dp530
g6
(lp531
g8
(g16
g10
NtRp532
(dp533
g19
g8
(g20
g10
NtRp534
(dp535
g23
g110
sg25
I1
sg26
F0.16905660838683767
sg27
S'A'
sg28
S'C'
sg29
g111
sg31
g112
sg33
F12.0107
sg34
g113
sbsg36
g37
(g38
(I0
tS'b'
tRp536
(I1
(I3
tg41
I00
S'\x0c\xfe\x83/\x15{\xf6\xbf\x14\x81\xe8\xbdx\xbd\x05@: \xc1@\xa4P\xae?'
tbsg42
(lp537
sbassI8
(dp538
g6
(lp539
g8
(g16
g10
NtRp540
(dp541
g19
g8
(g20
g10
NtRp542
(dp543
g23
g122
sg25
I1
sg26
F-0.48440175411088104
sg27
S'A'
sg28
S'O'
sg29
g123
sg31
g124
sg33
F15.9994
sg34
g125
sbsg36
g37
(g38
(I0
tS'b'
tRp544
(I1
(I3
tg41
I00
S'^\x85\xfamP+\x02\xc0\x14\x81\xe8\xbdx\xbd\x01@: \xc1@\xa4P\xae?'
tbsg42
(lp545
sbassI9
(dp546
g6
(lp547
g8
(g16
g10
NtRp548
(dp549
g19
g8
(g20
g10
NtRp550
(dp551
g23
g134
sg25
I1
sg26
F0.1236844857709713
sg27
S'A'
sg28
S'C'
sg29
g135
sg31
g136
sg33
F12.0107
sg34
g137
sbsg36
g37
(g38
(I0
tS'b'
tRp552
(I1
(I3
tg41
I00
S'~5m\xd6\xe1\x18\t\xc0\x14\x81\xe8\xbdx\xbd\x05@: \xc1@\xa4P\xae?'
tbsg42
(lp553
sbassI10
(dp554
g6
(lp555
g8
(g16
g10
NtRp556
(dp557
g19
g8
(g20
g10
NtRp558
(dp559
g23
g146
sg25
I1
sg26
F0.073086949756644315
sg27
S'A'
sg28
S'H'
sg29
g147
sg31
g148
sg33
F1.0079400000000001
sg34
g149
sbsg36
g37
(g38
(I0
tS'b'
tRp560
(I1
(I3
tg41
I00
S'\xd0\x0f\x89RC\xcb\n\xc0\xba\xd9\x1ewQ3\x11@: \xc1@\xa4P\xae?'
tbsg42
(lp561
sbassI11
(dp562
g6
(lp563
g8
(g16
g10
NtRp564
(dp565
g19
g8
(g20
g10
NtRp566
(dp567
g23
g158
sg25
I1
sg26
F0.073086949756644315
sg27
S'A'
sg28
S'H'
sg29
g159
sg31
g160
sg33
F1.0079400000000001
sg34
g161
sbsg36
g37
(g38
(I0
tS'b'
tRp568
(I1
(I3
tg41
I00
S'\xb4\xb5$\x17d\xfb\r\xc0HE\x9a\xec\xe6\xe0\x0c@: \xc1@\xa4P\xae?'
tbsg42
(lp569
sbassI14
(dp570
g6
(lp571
g8
(g16
g10
NtRp572
(dp573
g19
g8
(g20
g10
NtRp574
(dp575
g23
g182
sg25
I1
sg26
F0.073086949756644315
sg27
S'A'
sg28
S'H'
sg29
g183
sg31
g184
sg33
F1.0079400000000001
sg34
g185
sbsg36
g37
(g38
(I0
tS'b'
tRp576
(I1
(I3
tg41
I00
S'\xb4\xb5$\x17d\xfb\r\xc0\xe4\xbc6\x8f\n\x9a\x06@: \xc1@\xa4P\xae?'
tbsg42
(lp577
sbassI15
(dp578
g6
(lp579
g8
(g16
g10
NtRp580
(dp581
g19
g8
(g20
g10
NtRp582
(dp583
g23
g194
sg25
I1
sg26
F0.073086949756644315
sg27
S'A'
sg28
S'H'
sg29
g195
sg31
g196
sg33
F1.0079400000000001
sg34
g197
sbsg36
g37
(g38
(I0
tS'b'
tRp584
(I1
(I3
tg41
I00
S'\xd0\x0f\x89RC\xcb\n\xc0\xb4N\x93\x8dN\x14\x01@: \xc1@\xa4P\xae?'
tbsg42
(lp585
sbassI16
(dp586
g6
(lp587
g8
(g16
g10
NtRp588
(dp589
g19
g8
(g20
g10
NtRp590
(dp591
g23
g24
sg25
I1
sg26
F0.1236844857709713
sg27
S'A'
sg28
S'C'
sg29
g30
sg31
g32
sg33
F12.0107
sg34
g35
sbsg36
g37
(g38
(I0
tS'b'
tRp592
(I1
(I3
tg207
I00
S"\x8eP\xe1\xca\x8bD\x06@'\x8e\xb3?z\x05\xf4?\xb5\xe0$\xb4|}\xb5?"
tbsg42
(lp593
sbassI17
(dp594
g6
(lp595
g8
(g16
g10
NtRp596
(dp597
g19
g8
(g20
g10
NtRp598
(dp599
g23
g50
sg25
I1
sg26
F-0.48440175411088104
sg27
S'A'
sg28
S'O'
sg29
g51
sg31
g52
sg33
F15.9994
sg34
g53
sbsg36
g37
(g38
(I0
tS'b'
tRp600
(I1
(I3
tg207
I00
S"\xec@\xdd\xc4\xf4\xad\xfe?'\x8e\xb3?z\x05\xfc?U\xe0$\xb4|}\xb5?"
tbsg42
(lp601
sbassI18
(dp602
g6
(lp603
g8
(g16
g10
NtRp604
(dp605
g19
g8
(g20
g10
NtRp606
(dp607
g23
g62
sg25
I1
sg26
F0.16905660838683761
sg27
S'A'
sg28
S'C'
sg29
g63
sg31
g64
sg33
F12.0107
sg34
g65
sbsg36
g37
(g38
(I0
tS'b'
tRp608
(I1
(I3
tg207
I00
S"84l\x18i\xd2\xf0?'\x8e\xb3?z\x05\xf4?\xad\xe0$\xb4|}\xb5?"
tbsg42
(lp609
sbassI19
(dp610
g6
(lp611
g8
(g16
g10
NtRp612
(dp613
g19
g8
(g20
g10
NtRp614
(dp615
g23
g74
sg25
I1
sg26
F0.021159750210021706
sg27
S'A'
sg28
S'C'
sg29
g75
sg31
g76
sg33
F12.0107
sg34
g77
sbsg36
g37
(g38
(I0
tS'b'
tRp616
(I1
(I3
tg207
I00
S'\xfd\x9cI\xbfg\xec\xba?\xb7\x03%[\x87\xe5\xf8?\x8d\xe0$\xb4|}\xb5?'
tbsg42
(lp617
sbassI20
(dp618
g6
(lp619
g8
(g16
g10
NtRp620
(dp621
g19
g8
(g20
g10
NtRp622
(dp623
g23
g86
sg25
I1
sg26
F-0.09760588088754725
sg27
S'A'
sg28
S'S'
sg29
g87
sg31
g88
sg33
F32.064999999999998
sg34
g89
sbsg36
g37
(g38
(I0
tS'b'
tRp624
(I1
(I3
tg207
I00
S'Q\x1d\xaa\xe0\x99\x9e\xde\xbfO\x1cg\x7f\xf4\n\xe8?U\xe0$\xb4|}\xb5?'
tbsg42
(lp625
sbassI21
(dp626
g6
(lp627
g8
(g16
g10
NtRp628
(dp629
g19
g8
(g20
g10
NtRp630
(dp631
g23
g98
sg25
I1
sg26
F0.02115975021002171
sg27
S'A'
sg28
S'C'
sg29
g99
sg31
g100
sg33
F12.0107
sg34
g101
sbsg36
g37
(g38
(I0
tS'b'
tRp632
(I1
(I3
tg207
I00
S'\xfd\x9cI\xbfg\xec\xba?\x16\xee\xbcw[R\xab\xbf\x8d\xe0$\xb4|}\xb5?'
tbsg42
(lp633
sbassI22
(dp634
g6
(lp635
g8
(g16
g10
NtRp636
(dp637
g19
g8
(g20
g10
NtRp638
(dp639
g23
g110
sg25
I1
sg26
F0.16905660838683767
sg27
S'A'
sg28
S'C'
sg29
g111
sg31
g112
sg33
F12.0107
sg34
g113
sbsg36
g37
(g38
(I0
tS'b'
tRp640
(I1
(I3
tg207
I00
S'84l\x18i\xd2\xf0?}8\xce\xfe\xe8\x15\xd0?\xad\xe0$\xb4|}\xb5?'
tbsg42
(lp641
sbassI23
(dp642
g6
(lp643
g8
(g16
g10
NtRp644
(dp645
g19
g8
(g20
g10
NtRp646
(dp647
g23
g122
sg25
I1
sg26
F-0.48440175411088104
sg27
S'A'
sg28
S'O'
sg29
g123
sg31
g124
sg33
F15.9994
sg34
g125
sbsg36
g37
(g38
(I0
tS'b'
tRp648
(I1
(I3
tg207
I00
S'\xec@\xdd\xc4\xf4\xad\xfe?\x06\x8fc\x02.\xd4\xcf\xbfU\xe0$\xb4|}\xb5?'
tbsg42
(lp649
sbassI24
(dp650
g6
(lp651
g8
(g16
g10
NtRp652
(dp653
g19
g8
(g20
g10
NtRp654
(dp655
g23
g134
sg25
I1
sg26
F0.1236844857709713
sg27
S'A'
sg28
S'C'
sg29
g135
sg31
g136
sg33
F12.0107
sg34
g137
sbsg36
g37
(g38
(I0
tS'b'
tRp656
(I1
(I3
tg207
I00
S'\x8eP\xe1\xca\x8bD\x06@}8\xce\xfe\xe8\x15\xd0?\xb5\xe0$\xb4|}\xb5?'
tbsg42
(lp657
sbassI25
(dp658
g6
(lp659
g8
(g16
g10
NtRp660
(dp661
g19
g8
(g20
g10
NtRp662
(dp663
g23
g146
sg25
I1
sg26
F0.073086949756644315
sg27
S'A'
sg28
S'H'
sg29
g147
sg31
g148
sg33
F1.0079400000000001
sg34
g149
sbsg36
g37
(g38
(I0
tS'b'
tRp664
(I1
(I3
tg207
I00
S'\xe6*\xfdF\xed\xf6\x07@\xe7\xf2]\xa0\xceW\xfd?\x8d\xe0$\xb4|}\xb5?'
tbsg42
(lp665
sbassI26
(dp666
g6
(lp667
g8
(g16
g10
NtRp668
(dp669
g19
g8
(g20
g10
NtRp670
(dp671
g23
g158
sg25
I1
sg26
F0.073086949756644315
sg27
S'A'
sg28
S'H'
sg29
g159
sg31
g160
sg33
F1.0079400000000001
sg34
g161
sbsg36
g37
(g38
(I0
tS'b'
tRp672
(I1
(I3
tg207
I00
S"\xc6\xd0\x98\x0b\x0e'\x0b@\x87\x16\x17\x9dVL\xf2?\xbd\xe0$\xb4|}\xb5?"
tbsg42
(lp673
sbassI29
(dp674
g6
(lp675
g8
(g16
g10
NtRp676
(dp677
g19
g8
(g20
g10
NtRp678
(dp679
g23
g182
sg25
I1
sg26
F0.073086949756644315
sg27
S'A'
sg28
S'H'
sg29
g183
sg31
g184
sg33
F1.0079400000000001
sg34
g185
sbsg36
g37
(g38
(I0
tS'b'
tRp680
(I1
(I3
tg207
I00
S"\xc6\xd0\x98\x0b\x0e'\x0b@\xfd\x16@\x89w\xfa\xd6?\xbd\xe0$\xb4|}\xb5?"
tbsg42
(lp681
sbassI30
(dp682
g6
(lp683
g8
(g16
g10
NtRp684
(dp685
g19
g8
(g20
g10
NtRp686
(dp687
g23
g194
sg25
I1
sg26
F0.073086949756644315
sg27
S'A'
sg28
S'H'
sg29
g195
sg31
g196
sg33
F1.0079400000000001
sg34
g197
sbsg36
g37
(g38
(I0
tS'b'
tRp688
(I1
(I3
tg207
I00
S'\xe6*\xfdF\xed\xf6\x07@\x83Z\xdb\x83h3\xd5\xbf\x8d\xe0$\xb4|}\xb5?'
tbsg42
(lp689
sbasssg305
(dp690
sg307
I00
sg308
(lp691
(lp692
I1
aI0
aI0
aI0
aa(lp693
I0
aI1
aI0
aI0
aa(lp694
I0
aI0
aI1
aI0
aa(lp695
I0
aI0
aI0
aI1
aasg314
(dp696
sg31
S'PEDOT'
p697
sg317
(dp698
I1
(dp699
I9
(dp700
sI2
(dp701
sI11
(dp702
sI10
(dp703
ssI2
(dp704
I1
g701
sI3
(dp705
ssI3
(dp706
I2
g705
sI4
(dp707
sI7
(dp708
ssI4
(dp709
I3
g707
sI5
(dp710
ssI5
(dp711
I4
g710
sI6
(dp712
ssI6
(dp713
I19
(dp714
sI5
g712
sI7
(dp715
ssI7
(dp716
I8
(dp717
sI3
g708
sI6
g715
ssI8
(dp718
I9
(dp719
sI7
g717
ssI9
(dp720
I8
g719
sI1
g700
sI14
(dp721
sI15
(dp722
ssI10
(dp723
I1
g703
ssI11
(dp724
I1
g702
ssI14
(dp725
I9
g721
ssI15
(dp726
I9
g722
ssI16
(dp727
I24
(dp728
sI17
(dp729
sI26
(dp730
sI25
(dp731
ssI17
(dp732
I16
g729
sI18
(dp733
ssI18
(dp734
I17
g733
sI19
(dp735
sI22
(dp736
ssI19
(dp737
I18
g735
sI20
(dp738
sI6
g714
ssI20
(dp739
I19
g738
sI21
(dp740
ssI21
(dp741
I20
g740
sI22
(dp742
ssI22
(dp743
I18
g736
sI21
g742
sI23
(dp744
ssI23
(dp745
I24
(dp746
sI22
g744
ssI24
(dp747
I16
g728
sI29
(dp748
sI30
(dp749
sI23
g746
ssI25
(dp750
I16
g731
ssI26
(dp751
I16
g730
ssI29
(dp752
I24
g748
ssI30
(dp753
I24
g749
sssg376
g8
(g377
g10
NtRp754
(dp755
g380
(dp756
sg382
(dp757
sg384
(dp758
sg386
Nsg387
(dp759
g389
(lp760
F525
aF1.26
asg391
(lp761
F230
aF1.78
asg393
(lp762
F525
aF1.26
asg395
(lp763
F305
aF1.375
asg397
(lp764
F340
aF1.0800000000000001
asg399
(lp765
F305
aF1.375
asg401
(lp766
F340
aF1.0800000000000001
assg403
(dp767
g405
(lp768
F0
aF0
asg407
(lp769
F30
aF120
asg409
(lp770
F30
aF120
asg411
(lp771
F40
aF120
asg413
(lp772
F0
aF0
asg415
(lp773
F0
aF0
asg417
(lp774
F40
aF120
asg419
(lp775
F40
aF120
asg421
(lp776
F10
aF122.3
asg423
(lp777
F0
aF0
asg425
(lp778
F0
aF0
assg427
(dp779
g429
(lp780
F-0.070000000000000007
aF1.9923999999999999
aF0.1236844857709713
asg431
(lp781
F-0.070000000000000007
aF1.9923999999999999
aF0.16905660838683767
asg433
(lp782
F-0.12
aF1.75
aF-0.48440175411088104
asg435
(lp783
F-0.46999999999999997
aF2.1000000000000001
aF-0.09760588088754725
asg437
(lp784
F-0.029999999999999999
aF1.3582000000000001
aF0.073086949756644315
assg439
g440
sg441
(dp785
g443
(lp786
F0
aI0
aF0
asg445
(lp787
F3.1000000000000001
aI2
aF180
asg447
(lp788
F0
aI0
aF0
asg449
(lp789
F2.3999999999999999
aI2
aF180
asg453
(lp790
F4.2000000000000002
aI2
aF180
asg451
(lp791
F0
aI0
aF0
asg455
(lp792
F3.1000000000000001
aI2
aF180
asg457
(lp793
F0
aI0
aF0
asg459
(lp794
F0
aI0
aF0
asg461
(lp795
F2.3999999999999999
aI2
aF180
asg463
(lp796
F0
aI0
aF0
asg465
(lp797
F3.1000000000000001
aI2
aF180
asg467
(lp798
F2.3999999999999999
aI2
aF180
asg469
(lp799
F0
aI0
aF0
asg471
(lp800
F0
aI0
aF0
asg473
(lp801
F0
aI0
aF0
assbsg475
g698
sbassS'PEDOT0_1'
p802
(dp803
g6
(lp804
g8
(g9
g10
NtRp805
(dp806
g2
(dp807
I1
(dp808
g6
(lp809
g8
(g16
g10
NtRp810
(dp811
g19
g8
(g20
g10
NtRp812
(dp813
g23
g24
sg25
I1
sg26
F0.1236844857709713
sg27
S'A'
sg28
S'C'
sg29
g30
sg31
g32
sg33
F12.0107
sg34
g35
sbsg36
g37
(g38
(I0
tS'b'
tRp814
(I1
(I3
tg41
I00
S'\x0f7i\xc3\xfaX\x08\xc0`\xae\xcaN\xf8s\x0e@\xb2\xfcq\x87\x11s\xc1?'
tbsg42
(lp815
sbassI2
(dp816
g6
(lp817
g8
(g16
g10
NtRp818
(dp819
g19
g8
(g20
g10
NtRp820
(dp821
g23
g50
sg25
I1
sg26
F-0.48440175411088104
sg27
S'A'
sg28
S'O'
sg29
g51
sg31
g52
sg33
F15.9994
sg34
g53
sbsg36
g37
(g38
(I0
tS'b'
tRp822
(I1
(I3
tg41
I00
S"\xef\x86\xf6Zik\x01\xc00We'\xfc9\x11@\xb2\xfcq\x87\x11s\xc1?"
tbsg42
(lp823
sbassI3
(dp824
g6
(lp825
g8
(g16
g10
NtRp826
(dp827
g19
g8
(g20
g10
NtRp828
(dp829
g23
g62
sg25
I1
sg26
F0.16905660838683761
sg27
S'A'
sg28
S'C'
sg29
g63
sg31
g64
sg33
F12.0107
sg34
g65
sbsg36
g37
(g38
(I0
tS'b'
tRp830
(I1
(I3
tg41
I00
S'-\x01|\tG\xfb\xf4\xbf`\xae\xcaN\xf8s\x0e@\xb2\xfcq\x87\x11s\xc1?'
tbsg42
(lp831
sbassI4
(dp832
g6
(lp833
g8
(g16
g10
NtRp834
(dp835
g19
g8
(g20
g10
NtRp836
(dp837
g23
g74
sg25
I1
sg26
F0.021159750210021706
sg27
S'A'
sg28
S'C'
sg29
g75
sg31
g76
sg33
F12.0107
sg34
g77
sbsg36
g37
(g38
(I0
tS'b'
tRp838
(I1
(I3
tg41
I00
S'\x03\x9b\x11\xb4\x91^\xd7\xbf\x90\xb4An\xffq\x10@\xb2\xfcq\x87\x11s\xc1?'
tbsg42
(lp839
sbassI5
(dp840
g6
(lp841
g8
(g16
g10
NtRp842
(dp843
g19
g8
(g20
g10
NtRp844
(dp845
g23
g86
sg25
I1
sg26
F-0.09760588088754725
sg27
S'A'
sg28
S'S'
sg29
g87
sg31
g88
sg33
F32.064999999999998
sg34
g89
sbsg36
g37
(g38
(I0
tS'b'
tRp846
(I1
(I3
tg41
I00
S'Z\xd3\xd58D\xf6\xcb?`\xae\xcaN\xf8s\n@\xb2\xfcq\x87\x11s\xc1?'
tbsg42
(lp847
sbassI6
(dp848
g6
(lp849
g8
(g16
g10
NtRp850
(dp851
g19
g8
(g20
g10
NtRp852
(dp853
g23
g98
sg25
I1
sg26
F0.02115975021002171
sg27
S'A'
sg28
S'C'
sg29
g99
sg31
g100
sg33
F12.0107
sg34
g101
sbsg36
g37
(g38
(I0
tS'b'
tRp854
(I1
(I3
tg41
I00
S'\x03\x9b\x11\xb4\x91^\xd7\xbf\x90\xf3\x11\xc1\xf1\x03\x04@\xb2\xfcq\x87\x11s\xc1?'
tbsg42
(lp855
sbassI7
(dp856
g6
(lp857
g8
(g16
g10
NtRp858
(dp859
g19
g8
(g20
g10
NtRp860
(dp861
g23
g110
sg25
I1
sg26
F0.16905660838683767
sg27
S'A'
sg28
S'C'
sg29
g111
sg31
g112
sg33
F12.0107
sg34
g113
sbsg36
g37
(g38
(I0
tS'b'
tRp862
(I1
(I3
tg41
I00
S'-\x01|\tG\xfb\xf4\xbf`\xae\xcaN\xf8s\x06@\xb2\xfcq\x87\x11s\xc1?'
tbsg42
(lp863
sbassI8
(dp864
g6
(lp865
g8
(g16
g10
NtRp866
(dp867
g19
g8
(g20
g10
NtRp868
(dp869
g23
g122
sg25
I1
sg26
F-0.48440175411088104
sg27
S'A'
sg28
S'O'
sg29
g123
sg31
g124
sg33
F15.9994
sg34
g125
sbsg36
g37
(g38
(I0
tS'b'
tRp870
(I1
(I3
tg41
I00
S'\xef\x86\xf6Zik\x01\xc0`\xae\xcaN\xf8s\x02@\xb2\xfcq\x87\x11s\xc1?'
tbsg42
(lp871
sbassI9
(dp872
g6
(lp873
g8
(g16
g10
NtRp874
(dp875
g19
g8
(g20
g10
NtRp876
(dp877
g23
g134
sg25
I1
sg26
F0.1236844857709713
sg27
S'A'
sg28
S'C'
sg29
g135
sg31
g136
sg33
F12.0107
sg34
g137
sbsg36
g37
(g38
(I0
tS'b'
tRp878
(I1
(I3
tg41
I00
S'\x0f7i\xc3\xfaX\x08\xc0`\xae\xcaN\xf8s\x06@\xb2\xfcq\x87\x11s\xc1?'
tbsg42
(lp879
sbassI10
(dp880
g6
(lp881
g8
(g16
g10
NtRp882
(dp883
g19
g8
(g20
g10
NtRp884
(dp885
g23
g146
sg25
I1
sg26
F0.073086949756644315
sg27
S'A'
sg28
S'H'
sg29
g147
sg31
g148
sg33
F1.0079400000000001
sg34
g149
sbsg36
g37
(g38
(I0
tS'b'
tRp886
(I1
(I3
tg41
I00
S'a\x11\x85?\\\x0b\n\xc0`\xf0\x8f?\x91\x8e\x11@\xb2\xfcq\x87\x11s\xc1?'
tbsg42
(lp887
sbassI11
(dp888
g6
(lp889
g8
(g16
g10
NtRp890
(dp891
g19
g8
(g20
g10
NtRp892
(dp893
g23
g158
sg25
I1
sg26
F0.073086949756644315
sg27
S'A'
sg28
S'H'
sg29
g159
sg31
g160
sg33
F1.0079400000000001
sg34
g161
sbsg36
g37
(g38
(I0
tS'b'
tRp894
(I1
(I3
tg41
I00
S'E\xb7 \x04};\r\xc0\x90r|}f\x97\r@\xb2\xfcq\x87\x11s\xc1?'
tbsg42
(lp895
sbassI14
(dp896
g6
(lp897
g8
(g16
g10
NtRp898
(dp899
g19
g8
(g20
g10
NtRp900
(dp901
g23
g182
sg25
I1
sg26
F0.073086949756644315
sg27
S'A'
sg28
S'H'
sg29
g183
sg31
g184
sg33
F1.0079400000000001
sg34
g185
sbsg36
g37
(g38
(I0
tS'b'
tRp902
(I1
(I3
tg41
I00
S'E\xb7 \x04};\r\xc0 \xea\x18 \x8aP\x07@\xb2\xfcq\x87\x11s\xc1?'
tbsg42
(lp903
sbassI15
(dp904
g6
(lp905
g8
(g16
g10
NtRp906
(dp907
g19
g8
(g20
g10
NtRp908
(dp909
g23
g194
sg25
I1
sg26
F0.073086949756644315
sg27
S'A'
sg28
S'H'
sg29
g195
sg31
g196
sg33
F1.0079400000000001
sg34
g197
sbsg36
g37
(g38
(I0
tS'b'
tRp910
(I1
(I3
tg41
I00
S'a\x11\x85?\\\x0b\n\xc0\x00|u\x1e\xce\xca\x01@\xb2\xfcq\x87\x11s\xc1?'
tbsg42
(lp911
sbassI16
(dp912
g6
(lp913
g8
(g16
g10
NtRp914
(dp915
g19
g8
(g20
g10
NtRp916
(dp917
g23
g24
sg25
I1
sg26
F0.1236844857709713
sg27
S'A'
sg28
S'C'
sg29
g30
sg31
g32
sg33
F12.0107
sg34
g35
sbsg36
g37
(g38
(I0
tS'b'
tRp918
(I1
(I3
tg207
I00
S'\xfdN\xe5\xddr\x04\x07@\xc0\xe8wayr\xf5?\xfe$T\xd1\xa6\x9d\xc4?'
tbsg42
(lp919
sbassI17
(dp920
g6
(lp921
g8
(g16
g10
NtRp922
(dp923
g19
g8
(g20
g10
NtRp924
(dp925
g23
g50
sg25
I1
sg26
F-0.48440175411088104
sg27
S'A'
sg28
S'O'
sg29
g51
sg31
g52
sg33
F15.9994
sg34
g53
sbsg36
g37
(g38
(I0
tS'b'
tRp926
(I1
(I3
tg207
I00
S'\xe5\x9eru\xe1\x16\x00@\xc0\xe8wayr\xfd?\xce$T\xd1\xa6\x9d\xc4?'
tbsg42
(lp927
sbassI18
(dp928
g6
(lp929
g8
(g16
g10
NtRp930
(dp931
g19
g8
(g20
g10
NtRp932
(dp933
g23
g62
sg25
I1
sg26
F0.16905660838683761
sg27
S'A'
sg28
S'C'
sg29
g63
sg31
g64
sg33
F12.0107
sg34
g65
sbsg36
g37
(g38
(I0
tS'b'
tRp934
(I1
(I3
tg207
I00
S'\x171t>7R\xf2?\xc0\xe8wayr\xf5?\xfa$T\xd1\xa6\x9d\xc4?'
tbsg42
(lp935
sbassI19
(dp936
g6
(lp937
g8
(g16
g10
NtRp938
(dp939
g19
g8
(g20
g10
NtRp940
(dp941
g23
g74
sg25
I1
sg26
F0.021159750210021706
sg27
S'A'
sg28
S'C'
sg29
g75
sg31
g76
sg33
F12.0107
sg34
g77
sbsg36
g37
(g38
(I0
tS'b'
tRp942
(I1
(I3
tg207
I00
S'z\xb5\xe4\x0f\xa5t\xc9?@^\xe9|\x86R\xfa?\xea$T\xd1\xa6\x9d\xc4?'
tbsg42
(lp943
sbassI20
(dp944
g6
(lp945
g8
(g16
g10
NtRp946
(dp947
g19
g8
(g20
g10
NtRp948
(dp949
g23
g86
sg25
I1
sg26
F-0.09760588088754725
sg27
S'A'
sg28
S'S'
sg29
g87
sg31
g88
sg33
F32.064999999999998
sg34
g89
sbsg36
g37
(g38
(I0
tS'b'
tRp950
(I1
(I3
tg207
I00
S'\xd3)\x8aHa\x9f\xd8\xbf\x80\xd1\xef\xc2\xf2\xe4\xea?\xce$T\xd1\xa6\x9d\xc4?'
tbsg42
(lp951
sbassI21
(dp952
g6
(lp953
g8
(g16
g10
NtRp954
(dp955
g19
g8
(g20
g10
NtRp956
(dp957
g23
g98
sg25
I1
sg26
F0.02115975021002171
sg27
S'A'
sg28
S'C'
sg29
g99
sg31
g100
sg33
F12.0107
sg34
g101
sbsg36
g37
(g38
(I0
tS'b'
tRp958
(I1
(I3
tg207
I00
S'z\xb5\xe4\x0f\xa5t\xc9?\x00d\xce\xc0\x88M\xa2?\xea$T\xd1\xa6\x9d\xc4?'
tbsg42
(lp959
sbassI22
(dp960
g6
(lp961
g8
(g16
g10
NtRp962
(dp963
g19
g8
(g20
g10
NtRp964
(dp965
g23
g110
sg25
I1
sg26
F0.16905660838683767
sg27
S'A'
sg28
S'C'
sg29
g111
sg31
g112
sg33
F12.0107
sg34
g113
sbsg36
g37
(g38
(I0
tS'b'
tRp966
(I1
(I3
tg207
I00
S'\x171t>7R\xf2?\x80\xa2\xdf\x85\xe5\xc9\xd5?\xfa$T\xd1\xa6\x9d\xc4?'
tbsg42
(lp967
sbassI23
(dp968
g6
(lp969
g8
(g16
g10
NtRp970
(dp971
g19
g8
(g20
g10
NtRp972
(dp973
g23
g122
sg25
I1
sg26
F-0.48440175411088104
sg27
S'A'
sg28
S'O'
sg29
g123
sg31
g124
sg33
F15.9994
sg34
g125
sbsg36
g37
(g38
(I0
tS'b'
tRp974
(I1
(I3
tg207
I00
S'\xe5\x9eru\xe1\x16\x00@\x00\xbb@\xf44l\xc4\xbf\xce$T\xd1\xa6\x9d\xc4?'
tbsg42
(lp975
sbassI24
(dp976
g6
(lp977
g8
(g16
g10
NtRp978
(dp979
g19
g8
(g20
g10
NtRp980
(dp981
g23
g134
sg25
I1
sg26
F0.1236844857709713
sg27
S'A'
sg28
S'C'
sg29
g135
sg31
g136
sg33
F12.0107
sg34
g137
sbsg36
g37
(g38
(I0
tS'b'
tRp982
(I1
(I3
tg207
I00
S'\xfdN\xe5\xddr\x04\x07@\x80\xa2\xdf\x85\xe5\xc9\xd5?\xfe$T\xd1\xa6\x9d\xc4?'
tbsg42
(lp983
sbassI25
(dp984
g6
(lp985
g8
(g16
g10
NtRp986
(dp987
g19
g8
(g20
g10
NtRp988
(dp989
g23
g146
sg25
I1
sg26
F0.073086949756644315
sg27
S'A'
sg28
S'H'
sg29
g147
sg31
g148
sg33
F1.0079400000000001
sg34
g149
sbsg36
g37
(g38
(I0
tS'b'
tRp990
(I1
(I3
tg207
I00
S'U)\x01Z\xd4\xb6\x08@\x80M"\xc2\xcd\xc4\xfe?\xea$T\xd1\xa6\x9d\xc4?'
tbsg42
(lp991
sbassI26
(dp992
g6
(lp993
g8
(g16
g10
NtRp994
(dp995
g19
g8
(g20
g10
NtRp996
(dp997
g23
g158
sg25
I1
sg26
F0.073086949756644315
sg27
S'A'
sg28
S'H'
sg29
g159
sg31
g160
sg33
F1.0079400000000001
sg34
g161
sbsg36
g37
(g38
(I0
tS'b'
tRp998
(I1
(I3
tg207
I00
S'5\xcf\x9c\x1e\xf5\xe6\x0b@\x00q\xdb\xbeU\xb9\xf3?\x02%T\xd1\xa6\x9d\xc4?'
tbsg42
(lp999
sbassI28
(dp1000
g6
(lp1001
g8
(g16
g10
NtRp1002
(dp1003
g19
g8
(g20
g10
NtRp1004
(dp1005
g23
S'HC'
p1006
sg25
I1
sg26
F0.073129950673535393
sg27
S'A'
sg28
S'H'
sg29
S'LIG'
p1007
sg31
S'HC'
p1008
sg33
F1.0079400000000001
sg34
S'Hydrogen'
p1009
sbsg36
g37
(g38
(I0
tS'b'
tRp1010
(I1
(I3
tg207
I00
S'0/<)\xe5\xb0y?\x80\x7f{\xd7\x84\xb7\xe1\xbf\xc6$T\xd1\xa6\x9d\xc4?'
tbsg42
(lp1011
sbassI29
(dp1012
g6
(lp1013
g8
(g16
g10
NtRp1014
(dp1015
g19
g8
(g20
g10
NtRp1016
(dp1017
g23
g182
sg25
I1
sg26
F0.073086949756644315
sg27
S'A'
sg28
S'H'
sg29
g183
sg31
g184
sg33
F1.0079400000000001
sg34
g185
sbsg36
g37
(g38
(I0
tS'b'
tRp1018
(I1
(I3
tg207
I00
S'5\xcf\x9c\x1e\xf5\xe6\x0b@\x00\x81Q\x10t\xae\xdc?\x02%T\xd1\xa6\x9d\xc4?'
tbsg42
(lp1019
sbassI30
(dp1020
g6
(lp1021
g8
(g16
g10
NtRp1022
(dp1023
g19
g8
(g20
g10
NtRp1024
(dp1025
g23
g194
sg25
I1
sg26
F0.073086949756644315
sg27
S'A'
sg28
S'H'
sg29
g195
sg31
g196
sg33
F1.0079400000000001
sg34
g197
sbsg36
g37
(g38
(I0
tS'b'
tRp1026
(I1
(I3
tg207
I00
S'U)\x01Z\xd4\xb6\x08@\x00\xe1\x93\xf9\xd7\xfe\xce\xbf\xea$T\xd1\xa6\x9d\xc4?'
tbsg42
(lp1027
sbasssg305
(dp1028
sg307
I00
sg308
(lp1029
(lp1030
I1
aI0
aI0
aI0
aa(lp1031
I0
aI1
aI0
aI0
aa(lp1032
I0
aI0
aI1
aI0
aa(lp1033
I0
aI0
aI0
aI1
aasg314
(dp1034
sg31
S'PEDOT0'
p1035
sg317
(dp1036
I1
(dp1037
I9
(dp1038
sI2
(dp1039
sI11
(dp1040
sI10
(dp1041
ssI2
(dp1042
I1
g1039
sI3
(dp1043
ssI3
(dp1044
I2
g1043
sI4
(dp1045
sI7
(dp1046
ssI4
(dp1047
I3
g1045
sI5
(dp1048
ssI5
(dp1049
I4
g1048
sI6
(dp1050
ssI6
(dp1051
I19
(dp1052
sI5
g1050
sI7
(dp1053
ssI7
(dp1054
I8
(dp1055
sI3
g1046
sI6
g1053
ssI8
(dp1056
I9
(dp1057
sI7
g1055
ssI9
(dp1058
I8
g1057
sI1
g1038
sI14
(dp1059
sI15
(dp1060
ssI10
(dp1061
I1
g1041
ssI11
(dp1062
I1
g1040
ssI14
(dp1063
I9
g1059
ssI15
(dp1064
I9
g1060
ssI16
(dp1065
I24
(dp1066
sI17
(dp1067
sI26
(dp1068
sI25
(dp1069
ssI17
(dp1070
I16
g1067
sI18
(dp1071
ssI18
(dp1072
I17
g1071
sI19
(dp1073
sI22
(dp1074
ssI19
(dp1075
I18
g1073
sI20
(dp1076
sI6
g1052
ssI20
(dp1077
I19
g1076
sI21
(dp1078
ssI21
(dp1079
I28
(dp1080
sI20
g1078
sI22
(dp1081
ssI22
(dp1082
I18
g1074
sI21
g1081
sI23
(dp1083
ssI23
(dp1084
I24
(dp1085
sI22
g1083
ssI24
(dp1086
I16
g1066
sI29
(dp1087
sI30
(dp1088
sI23
g1085
ssI25
(dp1089
I16
g1069
ssI26
(dp1090
I16
g1068
ssI28
(dp1091
I21
g1080
ssI29
(dp1092
I24
g1087
ssI30
(dp1093
I24
g1088
sssg376
g8
(g377
g10
NtRp1094
(dp1095
g380
(dp1096
sg382
(dp1097
sg384
(dp1098
sg386
Nsg387
(dp1099
g389
(lp1100
F525
aF1.26
asg391
(lp1101
F230
aF1.78
asg393
(lp1102
F525
aF1.26
asg395
(lp1103
F305
aF1.375
asg397
(lp1104
F340
aF1.0800000000000001
asg399
(lp1105
F305
aF1.375
asg401
(lp1106
F340
aF1.0800000000000001
assg403
(dp1107
g405
(lp1108
F0
aF0
asg407
(lp1109
F30
aF120
asg409
(lp1110
F30
aF120
asg411
(lp1111
F40
aF120
asg413
(lp1112
F0
aF0
asg415
(lp1113
F0
aF0
asg417
(lp1114
F40
aF120
asg419
(lp1115
F40
aF120
asg421
(lp1116
F10
aF122.3
asg423
(lp1117
F0
aF0
asg425
(lp1118
F0
aF0
assg427
(dp1119
g429
(lp1120
F-0.070000000000000007
aF1.9923999999999999
aF0.1236844857709713
asg431
(lp1121
F-0.070000000000000007
aF1.9923999999999999
aF0.16905660838683767
asg433
(lp1122
F-0.12
aF1.75
aF-0.48440175411088104
asg435
(lp1123
F-0.46999999999999997
aF2.1000000000000001
aF-0.09760588088754725
asg437
(lp1124
F-0.029999999999999999
aF1.3582000000000001
aF0.073086949756644315
assg439
g440
sg441
(dp1125
g443
(lp1126
F0
aI0
aF0
asg445
(lp1127
F3.1000000000000001
aI2
aF180
asg447
(lp1128
F0
aI0
aF0
asg449
(lp1129
F2.3999999999999999
aI2
aF180
asg451
(lp1130
F0
aI0
aF0
asg453
(lp1131
F4.2000000000000002
aI2
aF180
asg455
(lp1132
F3.1000000000000001
aI2
aF180
asg457
(lp1133
F0
aI0
aF0
asg459
(lp1134
F0
aI0
aF0
asg461
(lp1135
F2.3999999999999999
aI2
aF180
asg463
(lp1136
F0
aI0
aF0
asg465
(lp1137
F3.1000000000000001
aI2
aF180
asg467
(lp1138
F2.3999999999999999
aI2
aF180
asg469
(lp1139
F0
aI0
aF0
asg471
(lp1140
F0
aI0
aF0
asg473
(lp1141
F0
aI0
aF0
assbsg475
g1036
sbassS'PEDOT1_1'
p1142
(dp1143
g6
(lp1144
g8
(g9
g10
NtRp1145
(dp1146
g2
(dp1147
I1
(dp1148
g6
(lp1149
g8
(g16
g10
NtRp1150
(dp1151
g19
g8
(g20
g10
NtRp1152
(dp1153
g23
g24
sg25
I1
sg26
F0.1236844857709713
sg27
S'A'
sg28
S'C'
sg29
g30
sg31
g32
sg33
F12.0107
sg34
g35
sbsg36
g37
(g38
(I0
tS'b'
tRp1154
(I1
(I3
tg41
I00
S'd?f\x91\x85\x90\x08\xc0PiP\x9e\x89s\x0e@\xf5\xa6\x81\xab\x95l\xc1?'
tbsg42
(lp1155
sbassI2
(dp1156
g6
(lp1157
g8
(g16
g10
NtRp1158
(dp1159
g19
g8
(g20
g10
NtRp1160
(dp1161
g23
g50
sg25
I1
sg26
F-0.48440175411088104
sg27
S'A'
sg28
S'O'
sg29
g51
sg31
g52
sg33
F15.9994
sg34
g53
sbsg36
g37
(g38
(I0
tS'b'
tRp1162
(I1
(I3
tg41
I00
S'D\x8f\xf3(\xf4\xa2\x01\xc0\xa84(\xcf\xc49\x11@\xf5\xa6\x81\xab\x95l\xc1?'
tbsg42
(lp1163
sbassI3
(dp1164
g6
(lp1165
g8
(g16
g10
NtRp1166
(dp1167
g19
g8
(g20
g10
NtRp1168
(dp1169
g23
g62
sg25
I1
sg26
F0.16905660838683761
sg27
S'A'
sg28
S'C'
sg29
g63
sg31
g64
sg33
F12.0107
sg34
g65
sbsg36
g37
(g38
(I0
tS'b'
tRp1170
(I1
(I3
tg41
I00
S'\xd7\x11v\xa5\\j\xf5\xbfPiP\x9e\x89s\x0e@\xf5\xa6\x81\xab\x95l\xc1?'
tbsg42
(lp1171
sbassI4
(dp1172
g6
(lp1173
g8
(g16
g10
NtRp1174
(dp1175
g19
g8
(g20
g10
NtRp1176
(dp1177
g23
g74
sg25
I1
sg26
F0.021159750210021706
sg27
S'A'
sg28
S'C'
sg29
g75
sg31
g76
sg33
F12.0107
sg34
g77
sbsg36
g37
(g38
(I0
tS'b'
tRp1178
(I1
(I3
tg41
I00
S'\xad\xdd\xf9#\xe8\x1a\xd9\xbf\x08\x92\x04\x16\xc8q\x10@\xf5\xa6\x81\xab\x95l\xc1?'
tbsg42
(lp1179
sbassI5
(dp1180
g6
(lp1181
g8
(g16
g10
NtRp1182
(dp1183
g19
g8
(g20
g10
NtRp1184
(dp1185
g23
g86
sg25
I1
sg26
F-0.09760588088754725
sg27
S'A'
sg28
S'S'
sg29
g87
sg31
g88
sg33
F32.064999999999998
sg34
g89
sbsg36
g37
(g38
(I0
tS'b'
tRp1186
(I1
(I3
tg41
I00
S'\x06N\x05Y\x97}\xc8?PiP\x9e\x89s\n@\xf5\xa6\x81\xab\x95l\xc1?'
tbsg42
(lp1187
sbassI6
(dp1188
g6
(lp1189
g8
(g16
g10
NtRp1190
(dp1191
g19
g8
(g20
g10
NtRp1192
(dp1193
g23
g98
sg25
I1
sg26
F0.02115975021002171
sg27
S'A'
sg28
S'C'
sg29
g99
sg31
g100
sg33
F12.0107
sg34
g101
sbsg36
g37
(g38
(I0
tS'b'
tRp1194
(I1
(I3
tg41
I00
S'\xad\xdd\xf9#\xe8\x1a\xd9\xbf\x80\xae\x97\x10\x83\x03\x04@\xf5\xa6\x81\xab\x95l\xc1?'
tbsg42
(lp1195
sbassI7
(dp1196
g6
(lp1197
g8
(g16
g10
NtRp1198
(dp1199
g19
g8
(g20
g10
NtRp1200
(dp1201
g23
g110
sg25
I1
sg26
F0.16905660838683767
sg27
S'A'
sg28
S'C'
sg29
g111
sg31
g112
sg33
F12.0107
sg34
g113
sbsg36
g37
(g38
(I0
tS'b'
tRp1202
(I1
(I3
tg41
I00
S'\xd7\x11v\xa5\\j\xf5\xbfPiP\x9e\x89s\x06@\xf5\xa6\x81\xab\x95l\xc1?'
tbsg42
(lp1203
sbassI8
(dp1204
g6
(lp1205
g8
(g16
g10
NtRp1206
(dp1207
g19
g8
(g20
g10
NtRp1208
(dp1209
g23
g122
sg25
I1
sg26
F-0.48440175411088104
sg27
S'A'
sg28
S'O'
sg29
g123
sg31
g124
sg33
F15.9994
sg34
g125
sbsg36
g37
(g38
(I0
tS'b'
tRp1210
(I1
(I3
tg41
I00
S'D\x8f\xf3(\xf4\xa2\x01\xc0PiP\x9e\x89s\x02@\xf5\xa6\x81\xab\x95l\xc1?'
tbsg42
(lp1211
sbassI9
(dp1212
g6
(lp1213
g8
(g16
g10
NtRp1214
(dp1215
g19
g8
(g20
g10
NtRp1216
(dp1217
g23
g134
sg25
I1
sg26
F0.1236844857709713
sg27
S'A'
sg28
S'C'
sg29
g135
sg31
g136
sg33
F12.0107
sg34
g137
sbsg36
g37
(g38
(I0
tS'b'
tRp1218
(I1
(I3
tg41
I00
S'd?f\x91\x85\x90\x08\xc0PiP\x9e\x89s\x06@\xf5\xa6\x81\xab\x95l\xc1?'
tbsg42
(lp1219
sbassI10
(dp1220
g6
(lp1221
g8
(g16
g10
NtRp1222
(dp1223
g19
g8
(g20
g10
NtRp1224
(dp1225
g23
g146
sg25
I1
sg26
F0.073086949756644315
sg27
S'A'
sg28
S'H'
sg29
g147
sg31
g148
sg33
F1.0079400000000001
sg34
g149
sbsg36
g37
(g38
(I0
tS'b'
tRp1226
(I1
(I3
tg41
I00
S'\xb6\x19\x82\r\xe7B\n\xc0\xd8\xcdR\xe7Y\x8e\x11@\xf5\xa6\x81\xab\x95l\xc1?'
tbsg42
(lp1227
sbassI11
(dp1228
g6
(lp1229
g8
(g16
g10
NtRp1230
(dp1231
g19
g8
(g20
g10
NtRp1232
(dp1233
g23
g158
sg25
I1
sg26
F0.073086949756644315
sg27
S'A'
sg28
S'H'
sg29
g159
sg31
g160
sg33
F1.0079400000000001
sg34
g161
sbsg36
g37
(g38
(I0
tS'b'
tRp1234
(I1
(I3
tg41
I00
S'\x9a\xbf\x1d\xd2\x07s\r\xc0\x80-\x02\xcd\xf7\x96\r@\xf5\xa6\x81\xab\x95l\xc1?'
tbsg42
(lp1235
sbassI12
(dp1236
g6
(lp1237
g8
(g16
g10
NtRp1238
(dp1239
g19
g8
(g20
g10
NtRp1240
(dp1241
g23
g170
sg25
I1
sg26
F0.073129950673535393
sg27
S'A'
sg28
S'H'
sg29
g171
sg31
g172
sg33
F1.0079400000000001
sg34
g173
sbsg36
g37
(g38
(I0
tS'b'
tRp1242
(I1
(I3
tg41
I00
S':\xe7Xa\xb2\x8e\xc9\xbf\xbc\x9eu\xc2S\xcd\x12@\xf5\xa6\x81\xab\x95l\xc1?'
tbsg42
(lp1243
sbassI14
(dp1244
g6
(lp1245
g8
(g16
g10
NtRp1246
(dp1247
g19
g8
(g20
g10
NtRp1248
(dp1249
g23
g182
sg25
I1
sg26
F0.073086949756644315
sg27
S'A'
sg28
S'H'
sg29
g183
sg31
g184
sg33
F1.0079400000000001
sg34
g185
sbsg36
g37
(g38
(I0
tS'b'
tRp1250
(I1
(I3
tg41
I00
S'\x9a\xbf\x1d\xd2\x07s\r\xc0 \xa5\x9eo\x1bP\x07@\xf5\xa6\x81\xab\x95l\xc1?'
tbsg42
(lp1251
sbassI15
(dp1252
g6
(lp1253
g8
(g16
g10
NtRp1254
(dp1255
g19
g8
(g20
g10
NtRp1256
(dp1257
g23
g194
sg25
I1
sg26
F0.073086949756644315
sg27
S'A'
sg28
S'H'
sg29
g195
sg31
g196
sg33
F1.0079400000000001
sg34
g197
sbsg36
g37
(g38
(I0
tS'b'
tRp1258
(I1
(I3
tg41
I00
S'\xb6\x19\x82\r\xe7B\n\xc0\xf06\xfbm_\xca\x01@\xf5\xa6\x81\xab\x95l\xc1?'
tbsg42
(lp1259
sbassI16
(dp1260
g6
(lp1261
g8
(g16
g10
NtRp1262
(dp1263
g19
g8
(g20
g10
NtRp1264
(dp1265
g23
g24
sg25
I1
sg26
F0.1236844857709713
sg27
S'A'
sg28
S'C'
sg29
g30
sg31
g32
sg33
F12.0107
sg34
g35
sbsg36
g37
(g38
(I0
tS'b'
tRp1266
(I1
(I3
tg207
I00
S'\xa8F\xe8\x0f\xe8\xcc\x06@\xa0^\x83\x00\x9cq\xf5?A\xcfc\xf5*\x97\xc4?'
tbsg42
(lp1267
sbassI17
(dp1268
g6
(lp1269
g8
(g16
g10
NtRp1270
(dp1271
g19
g8
(g20
g10
NtRp1272
(dp1273
g23
g50
sg25
I1
sg26
F-0.48440175411088104
sg27
S'A'
sg28
S'O'
sg29
g51
sg31
g52
sg33
F15.9994
sg34
g53
sbsg36
g37
(g38
(I0
tS'b'
tRp1274
(I1
(I3
tg207
I00
S'!-\xebN\xad\xbe\xff?\xa0^\x83\x00\x9cq\xfd?\x11\xcfc\xf5*\x97\xc4?'
tbsg42
(lp1275
sbassI18
(dp1276
g6
(lp1277
g8
(g16
g10
NtRp1278
(dp1279
g19
g8
(g20
g10
NtRp1280
(dp1281
g23
g62
sg25
I1
sg26
F0.16905660838683761
sg27
S'A'
sg28
S'C'
sg29
g63
sg31
g64
sg33
F12.0107
sg34
g65
sbsg36
g37
(g38
(I0
tS'b'
tRp1282
(I1
(I3
tg207
I00
S'm z\xa2!\xe3\xf1?\xa0^\x83\x00\x9cq\xf5?=\xcfc\xf5*\x97\xc4?'
tbsg42
(lp1283
sbassI19
(dp1284
g6
(lp1285
g8
(g16
g10
NtRp1286
(dp1287
g19
g8
(g20
g10
NtRp1288
(dp1289
g23
g74
sg25
I1
sg26
F0.021159750210021706
sg27
S'A'
sg28
S'C'
sg29
g75
sg31
g76
sg33
F12.0107
sg34
g77
sbsg36
g37
(g38
(I0
tS'b'
tRp1290
(I1
(I3
tg207
I00
S'&0\x140\xf8\xfb\xc5? \xd4\xf4\x1b\xa9Q\xfa?-\xcfc\xf5*\x97\xc4?'
tbsg42
(lp1291
sbassI20
(dp1292
g6
(lp1293
g8
(g16
g10
NtRp1294
(dp1295
g19
g8
(g20
g10
NtRp1296
(dp1297
g23
g86
sg25
I1
sg26
F-0.09760588088754725
sg27
S'A'
sg28
S'S'
sg29
g87
sg31
g88
sg33
F32.064999999999998
sg34
g89
sbsg36
g37
(g38
(I0
tS'b'
tRp1298
(I1
(I3
tg207
I00
S'}lr\xb8\xb7[\xda\xbf@\xbd\x06\x018\xe3\xea?\x11\xcfc\xf5*\x97\xc4?'
tbsg42
(lp1299
sbassI21
(dp1300
g6
(lp1301
g8
(g16
g10
NtRp1302
(dp1303
g19
g8
(g20
g10
NtRp1304
(dp1305
g23
g98
sg25
I1
sg26
F0.02115975021002171
sg27
S'A'
sg28
S'C'
sg29
g99
sg31
g100
sg33
F12.0107
sg34
g101
sbsg36
g37
(g38
(I0
tS'b'
tRp1306
(I1
(I3
tg207
I00
S'&0\x140\xf8\xfb\xc5?\x00 =\xa2\xdc1\xa2?-\xcfc\xf5*\x97\xc4?'
tbsg42
(lp1307
sbassI22
(dp1308
g6
(lp1309
g8
(g16
g10
NtRp1310
(dp1311
g19
g8
(g20
g10
NtRp1312
(dp1313
g23
g110
sg25
I1
sg26
F0.16905660838683767
sg27
S'A'
sg28
S'C'
sg29
g111
sg31
g112
sg33
F12.0107
sg34
g113
sbsg36
g37
(g38
(I0
tS'b'
tRp1314
(I1
(I3
tg207
I00
S'm z\xa2!\xe3\xf1?@z\r\x02p\xc6\xd5?=\xcfc\xf5*\x97\xc4?'
tbsg42
(lp1315
sbassI23
(dp1316
g6
(lp1317
g8
(g16
g10
NtRp1318
(dp1319
g19
g8
(g20
g10
NtRp1320
(dp1321
g23
g122
sg25
I1
sg26
F-0.48440175411088104
sg27
S'A'
sg28
S'O'
sg29
g123
sg31
g124
sg33
F15.9994
sg34
g125
sbsg36
g37
(g38
(I0
tS'b'
tRp1322
(I1
(I3
tg207
I00
S'!-\xebN\xad\xbe\xff?\x80\x0b\xe5\xfb\x1fs\xc4\xbf\x11\xcfc\xf5*\x97\xc4?'
tbsg42
(lp1323
sbassI24
(dp1324
g6
(lp1325
g8
(g16
g10
NtRp1326
(dp1327
g19
g8
(g20
g10
NtRp1328
(dp1329
g23
g134
sg25
I1
sg26
F0.1236844857709713
sg27
S'A'
sg28
S'C'
sg29
g135
sg31
g136
sg33
F12.0107
sg34
g137
sbsg36
g37
(g38
(I0
tS'b'
tRp1330
(I1
(I3
tg207
I00
S'\xa8F\xe8\x0f\xe8\xcc\x06@@z\r\x02p\xc6\xd5?A\xcfc\xf5*\x97\xc4?'
tbsg42
(lp1331
sbassI25
(dp1332
g6
(lp1333
g8
(g16
g10
NtRp1334
(dp1335
g19
g8
(g20
g10
NtRp1336
(dp1337
g23
g146
sg25
I1
sg26
F0.073086949756644315
sg27
S'A'
sg28
S'H'
sg29
g147
sg31
g148
sg33
F1.0079400000000001
sg34
g149
sbsg36
g37
(g38
(I0
tS'b'
tRp1338
(I1
(I3
tg207
I00
S'\x00!\x04\x8cI\x7f\x08@`\xc3-a\xf0\xc3\xfe?-\xcfc\xf5*\x97\xc4?'
tbsg42
(lp1339
sbassI26
(dp1340
g6
(lp1341
g8
(g16
g10
NtRp1342
(dp1343
g19
g8
(g20
g10
NtRp1344
(dp1345
g23
g158
sg25
I1
sg26
F0.073086949756644315
sg27
S'A'
sg28
S'H'
sg29
g159
sg31
g160
sg33
F1.0079400000000001
sg34
g161
sbsg36
g37
(g38
(I0
tS'b'
tRp1346
(I1
(I3
tg207
I00
S'\xe0\xc6\x9fPj\xaf\x0b@\x00\xe7\xe6]x\xb8\xf3?E\xcfc\xf5*\x97\xc4?'
tbsg42
(lp1347
sbassI28
(dp1348
g6
(lp1349
g8
(g16
g10
NtRp1350
(dp1351
g19
g8
(g20
g10
NtRp1352
(dp1353
g23
g1006
sg25
I1
sg26
F0.073129950673535393
sg27
S'A'
sg28
S'H'
sg29
g1007
sg31
g1008
sg33
F1.0079400000000001
sg34
g1009
sbsg36
g37
(g38
(I0
tS'b'
tRp1354
(I1
(I3
tg207
I00
S'\xd0\x1e5\xb4-Y\x95\xbf\x80\x93d\x99?\xb9\xe1\xbf\t\xcfc\xf5*\x97\xc4?'
tbsg42
(lp1355
sbassI29
(dp1356
g6
(lp1357
g8
(g16
g10
NtRp1358
(dp1359
g19
g8
(g20
g10
NtRp1360
(dp1361
g23
g182
sg25
I1
sg26
F0.073086949756644315
sg27
S'A'
sg28
S'H'
sg29
g183
sg31
g184
sg33
F1.0079400000000001
sg34
g185
sbsg36
g37
(g38
(I0
tS'b'
tRp1362
(I1
(I3
tg207
I00
S'\xe0\xc6\x9fPj\xaf\x0b@\xc0X\x7f\x8c\xfe\xaa\xdc?E\xcfc\xf5*\x97\xc4?'
tbsg42
(lp1363
sbassI30
(dp1364
g6
(lp1365
g8
(g16
g10
NtRp1366
(dp1367
g19
g8
(g20
g10
NtRp1368
(dp1369
g23
g194
sg25
I1
sg26
F0.073086949756644315
sg27
S'A'
sg28
S'H'
sg29
g195
sg31
g196
sg33
F1.0079400000000001
sg34
g197
sbsg36
g37
(g38
(I0
tS'b'
tRp1370
(I1
(I3
tg207
I00
S'\x00!\x04\x8cI\x7f\x08@\x8018\x01\xc3\x05\xcf\xbf-\xcfc\xf5*\x97\xc4?'
tbsg42
(lp1371
sbasssg305
(dp1372
sg307
I00
sg308
(lp1373
(lp1374
I1
aI0
aI0
aI0
aa(lp1375
I0
aI1
aI0
aI0
aa(lp1376
I0
aI0
aI1
aI0
aa(lp1377
I0
aI0
aI0
aI1
aasg314
(dp1378
sg31
S'PEDOT1'
p1379
sg317
(dp1380
I1
(dp1381
I9
(dp1382
sI2
(dp1383
sI11
(dp1384
sI10
(dp1385
ssI2
(dp1386
I1
g1383
sI3
(dp1387
ssI3
(dp1388
I2
g1387
sI4
(dp1389
sI7
(dp1390
ssI4
(dp1391
I3
g1389
sI12
(dp1392
sI5
(dp1393
ssI5
(dp1394
I4
g1393
sI6
(dp1395
ssI6
(dp1396
I19
(dp1397
sI5
g1395
sI7
(dp1398
ssI7
(dp1399
I8
(dp1400
sI3
g1390
sI6
g1398
ssI8
(dp1401
I9
(dp1402
sI7
g1400
ssI9
(dp1403
I8
g1402
sI1
g1382
sI14
(dp1404
sI15
(dp1405
ssI10
(dp1406
I1
g1385
ssI11
(dp1407
I1
g1384
ssI12
(dp1408
I4
g1392
ssI14
(dp1409
I9
g1404
ssI15
(dp1410
I9
g1405
ssI16
(dp1411
I24
(dp1412
sI17
(dp1413
sI26
(dp1414
sI25
(dp1415
ssI17
(dp1416
I16
g1413
sI18
(dp1417
ssI18
(dp1418
I17
g1417
sI19
(dp1419
sI22
(dp1420
ssI19
(dp1421
I18
g1419
sI20
(dp1422
sI6
g1397
ssI20
(dp1423
I19
g1422
sI21
(dp1424
ssI21
(dp1425
I28
(dp1426
sI20
g1424
sI22
(dp1427
ssI22
(dp1428
I18
g1420
sI21
g1427
sI23
(dp1429
ssI23
(dp1430
I24
(dp1431
sI22
g1429
ssI24
(dp1432
I16
g1412
sI29
(dp1433
sI30
(dp1434
sI23
g1431
ssI25
(dp1435
I16
g1415
ssI26
(dp1436
I16
g1414
ssI28
(dp1437
I21
g1426
ssI29
(dp1438
I24
g1433
ssI30
(dp1439
I24
g1434
sssg376
g8
(g377
g10
NtRp1440
(dp1441
g380
(dp1442
sg382
(dp1443
sg384
(dp1444
sg386
Nsg387
(dp1445
g389
(lp1446
F525
aF1.26
asg395
(lp1447
F305
aF1.375
asg393
(lp1448
F525
aF1.26
asg391
(lp1449
F230
aF1.78
asg397
(lp1450
F340
aF1.0800000000000001
asg399
(lp1451
F305
aF1.375
asg401
(lp1452
F340
aF1.0800000000000001
assg403
(dp1453
g405
(lp1454
F0
aF0
asg407
(lp1455
F30
aF120
asg409
(lp1456
F30
aF120
asg411
(lp1457
F40
aF120
asg415
(lp1458
F0
aF0
asg421
(lp1459
F10
aF122.3
asg419
(lp1460
F40
aF120
asg417
(lp1461
F40
aF120
asg423
(lp1462
F0
aF0
asg413
(lp1463
F0
aF0
asg425
(lp1464
F0
aF0
assg427
(dp1465
g429
(lp1466
F-0.070000000000000007
aF1.9923999999999999
aF0.1236844857709713
asg431
(lp1467
F-0.070000000000000007
aF1.9923999999999999
aF0.16905660838683767
asg437
(lp1468
F-0.029999999999999999
aF1.3582000000000001
aF0.073086949756644315
asg433
(lp1469
F-0.12
aF1.75
aF-0.48440175411088104
asg435
(lp1470
F-0.46999999999999997
aF2.1000000000000001
aF-0.09760588088754725
assg439
g440
sg441
(dp1471
g467
(lp1472
F2.3999999999999999
aI2
aF180
asg469
(lp1473
F0
aI0
aF0
asg445
(lp1474
F3.1000000000000001
aI2
aF180
asg447
(lp1475
F0
aI0
aF0
asg471
(lp1476
F0
aI0
aF0
asg451
(lp1477
F0
aI0
aF0
asg453
(lp1478
F4.2000000000000002
aI2
aF180
asg455
(lp1479
F3.1000000000000001
aI2
aF180
asg457
(lp1480
F0
aI0
aF0
asg459
(lp1481
F0
aI0
aF0
asg463
(lp1482
F0
aI0
aF0
asg465
(lp1483
F3.1000000000000001
aI2
aF180
asg461
(lp1484
F2.3999999999999999
aI2
aF180
asg443
(lp1485
F0
aI0
aF0
asg449
(lp1486
F2.3999999999999999
aI2
aF180
asg473
(lp1487
F0
aI0
aF0
assbsg475
g1380
sbasssS'trad'
p1488
Nsg314
(dp1489
sS'molNameIndex'
p1490
(dp1491
g316
I1
sg697
I1
sg1035
I1
sg1379
I1
ssS'modificationTime'
p1492
F5.1100000000000003
sS'atomOrder'
p1493
(lp1494
sS'solvents'
p1495
(dp1496
sg317
(dp1497
g4
(dp1498
sg476
(dp1499
sg802
(dp1500
sg1142
(dp1501
ssS'mixName'
p1502
S'bak'
p1503
sg475
g1497
s.