(dp1
S'node'
p2
(dp3
S'PSSne_2'
p4
(dp5
S'attrs'
p6
(lp7
ccopy_reg
_reconstructor
p8
(clib.chemicalGraph.molecule.Molecule
Molecule
p9
c__builtin__
object
p10
NtRp11
(dp12
g2
(dp13
I3
(dp14
g6
(lp15
g8
(clib.chemicalGraph.molecule.AtomAttributes
AtomAttributes
p16
g10
NtRp17
(dp18
S'_info'
p19
g8
(clib.chemicalGraph.molecule.AtomAttributes
AtomInfo
p20
g10
NtRp21
(dp22
S'_type'
p23
S'C4'
p24
sS'_res_seq'
p25
I1
sS'_charge'
p26
F-0.023724351092772298
sS'_chain'
p27
S'A'
sS'_element'
p28
S'C'
sS'_residue'
p29
S'LIG'
p30
sS'_name'
p31
S'Car'
p32
sS'_mass'
p33
F12.0107
sS'_fullname'
p34
S'Carbon'
p35
sbsS'_coordinates'
p36
cnumpy.core.multiarray
_reconstruct
p37
(cnumpy
ndarray
p38
(I0
tS'b'
tRp39
(I1
(I3
tcnumpy
dtype
p40
(S'f8'
I0
I1
tRp41
(I3
S'<'
NNNI-1
I-1
I0
tbI00
S'3\xab,k\xd2\xcd\x0b@ R(\xaf\x1ar\xe7\xbf\xb9\xda\x06\xee\x99+\xb5?'
tbsS'_attributes'
p42
(lp43
sbassI4
(dp44
g6
(lp45
g8
(g16
g10
NtRp46
(dp47
g19
g8
(g20
g10
NtRp48
(dp49
g23
S'C3'
p50
sg25
I1
sg26
F-0.054553844020285638
sg27
S'A'
sg28
S'C'
sg29
S'LIG'
p51
sg31
S'Car'
p52
sg33
F12.0107
sg34
S'Carbon'
p53
sbsg36
g37
(g38
(I0
tS'b'
tRp54
(I1
(I3
tg41
I00
S'3\xab,k\xd2\xcd\x07@T\x89y(0\x94\xf9\xbf\xe9\xda\x06\xee\x99+\xb5?'
tbsg42
(lp55
sbassI5
(dp56
g6
(lp57
g8
(g16
g10
NtRp58
(dp59
g19
g8
(g20
g10
NtRp60
(dp61
g23
S'C2'
p62
sg25
I1
sg26
F-0.061201460917836327
sg27
S'A'
sg28
S'C'
sg29
S'LIG'
p63
sg31
S'Car'
p64
sg33
F12.0107
sg34
S'Carbon'
p65
sbsg36
g37
(g38
(I0
tS'b'
tRp66
(I1
(I3
tg41
I00
S'wVY\xd6\xa4\x9b\xff?d\x89y(0\x94\xf9\xbf\x91\xda\x06\xee\x99+\xb5?'
tbsg42
(lp67
sbassI6
(dp68
g6
(lp69
g8
(g16
g10
NtRp70
(dp71
g19
g8
(g20
g10
NtRp72
(dp73
g23
S'C1'
p74
sg25
I1
sg26
F-0.061723031912765083
sg27
S'A'
sg28
S'C'
sg29
S'LIG'
p75
sg31
S'Car'
p76
sg33
F12.0107
sg34
S'Carbon'
p77
sbsg36
g37
(g38
(I0
tS'b'
tRp78
(I1
(I3
tg41
I00
S'vVY\xd6\xa4\x9b\xf7? R(\xaf\x1ar\xe7\xbfI\xda\x06\xee\x99+\xb5?'
tbsg42
(lp79
sbassI7
(dp80
g6
(lp81
g8
(g16
g10
NtRp82
(dp83
g19
g8
(g20
g10
NtRp84
(dp85
g23
g62
sg25
I1
sg26
F-0.061201460917836327
sg27
S'A'
sg28
S'C'
sg29
S'LIG'
p86
sg31
S'Car'
p87
sg33
F12.0107
sg34
S'Carbon'
p88
sbsg36
g37
(g38
(I0
tS'b'
tRp89
(I1
(I3
tg41
I00
S'wVY\xd6\xa4\x9b\xff?\x80\x1c\xe7\xa6\xf2\x13\xc1?Y\xda\x06\xee\x99+\xb5?'
tbsg42
(lp90
sbassI8
(dp91
g6
(lp92
g8
(g16
g10
NtRp93
(dp94
g19
g8
(g20
g10
NtRp95
(dp96
g23
g50
sg25
I1
sg26
F-0.054553844020285638
sg27
S'A'
sg28
S'C'
sg29
S'LIG'
p97
sg31
S'Car'
p98
sg33
F12.0107
sg34
S'Carbon'
p99
sbsg36
g37
(g38
(I0
tS'b'
tRp100
(I1
(I3
tg41
I00
S'3\xab,k\xd2\xcd\x07@\x80\x1c\xe7\xa6\xf2\x13\xc1?y\xda\x06\xee\x99+\xb5?'
tbsg42
(lp101
sbassI15
(dp102
g6
(lp103
g8
(g16
g10
NtRp104
(dp105
g19
g8
(g20
g10
NtRp106
(dp107
g23
S'H3'
p108
sg25
I1
sg26
F0.062344200605142688
sg27
S'A'
sg28
S'H'
sg29
S'LIG'
p109
sg31
S'HC'
p110
sg33
F1.0079400000000001
sg34
S'Hydrogen'
p111
sbsg36
g37
(g38
(I0
tS'b'
tRp112
(I1
(I3
tg41
I00
S'\xb3\xbf\xda\xb2\xb3H\n@ \x8cfN\xaa\x15\x01\xc0\x91\xda\x06\xee\x99+\xb5?'
tbsg42
(lp113
sbassI16
(dp114
g6
(lp115
g8
(g16
g10
NtRp116
(dp117
g19
g8
(g20
g10
NtRp118
(dp119
g23
S'H2'
p120
sg25
I1
sg26
F0.061775861220190055
sg27
S'A'
sg28
S'H'
sg29
S'LIG'
p121
sg31
S'HC'
p122
sg33
F1.0079400000000001
sg34
S'Hydrogen'
p123
sbsg36
g37
(g38
(I0
tS'b'
tRp124
(I1
(I3
tg41
I00
S'v-\xfdF\xe2\xa5\xfa? \x8cfN\xaa\x15\x01\xc0\x99\xda\x06\xee\x99+\xb5?'
tbsg42
(lp125
sbassI18
(dp126
g6
(lp127
g8
(g16
g10
NtRp128
(dp129
g19
g8
(g20
g10
NtRp130
(dp131
g23
g120
sg25
I1
sg26
F0.061775861220190055
sg27
S'A'
sg28
S'H'
sg29
S'LIG'
p132
sg31
S'HC'
p133
sg33
F1.0079400000000001
sg34
S'Hydrogen'
p134
sbsg36
g37
(g38
(I0
tS'b'
tRp135
(I1
(I3
tg41
I00
S'v-\xfdF\xe2\xa5\xfa?\xe0\xe4`\x92Es\xe5?y\xda\x06\xee\x99+\xb5?'
tbsg42
(lp136
sbassI19
(dp137
g6
(lp138
g8
(g16
g10
NtRp139
(dp140
g19
g8
(g20
g10
NtRp141
(dp142
g23
g108
sg25
I1
sg26
F0.062344200605142688
sg27
S'A'
sg28
S'H'
sg29
S'LIG'
p143
sg31
S'HC'
p144
sg33
F1.0079400000000001
sg34
S'Hydrogen'
p145
sbsg36
g37
(g38
(I0
tS'b'
tRp146
(I1
(I3
tg41
I00
S'\xaf\xbf\xda\xb2\xb3H\n@\x00\xe5`\x92Es\xe5?\xa1\xda\x06\xee\x99+\xb5?'
tbsg42
(lp147
sbassI21
(dp148
g6
(lp149
g8
(g16
g10
NtRp150
(dp151
g19
g8
(g20
g10
NtRp152
(dp153
g23
S'C'
sg25
I1
sg26
F0.14715600000000001
sg27
S'A'
sg28
S'C'
sg29
S'ELT'
p154
sg31
S'C'
sg33
F12.0107
sg34
S'C'
sbsg36
g37
(g38
(I0
tS'b'
tRp155
(I1
(I3
tg41
I00
S'\xab\xc6A\xa6\xd6i\xe3?\xe0\xa1\x9c^\xc6\x85\xeb\xbf\\\xf3\xd1T\x016\xc0?'
tbsg42
(lp156
sbassI22
(dp157
g6
(lp158
g8
(g16
g10
NtRp159
(dp160
g19
g8
(g20
g10
NtRp161
(dp162
g23
S'C'
sg25
I1
sg26
F0.14715600000000001
sg27
S'A'
sg28
S'C'
sg29
g154
sg31
S'C'
sg33
F12.0107
sg34
S'C'
sbsg36
g37
(g38
(I0
tS'b'
tRp163
(I1
(I3
tg41
I00
S"\xac\xe7\xd3e't\xca?\x00Sdng^\xb3?\xd1:\x03%\xe0%\xa1\xbf"
tbsg42
(lp164
sbassI24
(dp165
g6
(lp166
g8
(g16
g10
NtRp167
(dp168
g19
g8
(g20
g10
NtRp169
(dp170
g23
S'H'
sg25
I1
sg26
F0.41699999999999998
sg27
S'A'
sg28
S'H'
sg29
g154
sg31
S'H'
sg33
F1.0079400000000001
sg34
S'H'
sbsg36
g37
(g38
(I0
tS'b'
tRp171
(I1
(I3
tg41
I00
S'\xab\xe2\xebPr$\xd2\xbf\x0c\x94\xb0v\x9at\xf0?\x1c\xac\xca\x99$\x80l?'
tbsg42
(lp172
sbassI57
(dp173
g6
(lp174
g8
(g16
g10
NtRp175
(dp176
g19
g8
(g20
g10
NtRp177
(dp178
g23
S'S'
sg25
I1
sg26
F0.10279620598469805
sg27
S'A'
sg28
S'S'
sg29
S'LIG'
p179
sg31
S'So2'
p180
sg33
F32.064999999999998
sg34
S'Sulfur'
p181
sbsg36
g37
(g38
(I0
tS'b'
tRp182
(I1
(I3
tg41
I00
S'\xea\xc3A\x02\xefC\x11@\x90\xb7JV@\xb7\xe8\xbf\t\xaa\xccyAx\xbb?'
tbsg42
(lp183
sbassI58
(dp184
g6
(lp185
g8
(g16
g10
NtRp186
(dp187
g19
g8
(g20
g10
NtRp188
(dp189
g23
S'O'
sg25
I1
sg26
F-0.14266891092101905
sg27
S'A'
sg28
S'O'
sg29
S'LIG'
p190
sg31
S'O2'
p191
sg33
F15.9994
sg34
S'Oxygen'
p192
sbsg36
g37
(g38
(I0
tS'b'
tRp193
(I1
(I3
tg41
I00
S'\xec\xc3A\x02\xefC\x11@\xc0!\xd5\xa6\xfe"\xcd?)\xaa\xccyAx\xbb?'
tbsg42
(lp194
sbassI59
(dp195
g6
(lp196
g8
(g16
g10
NtRp197
(dp198
g19
g8
(g20
g10
NtRp199
(dp200
g23
S'O'
sg25
I1
sg26
F-0.14266891092101905
sg27
S'A'
sg28
S'O'
sg29
S'LIG'
p201
sg31
S'O2'
p202
sg33
F15.9994
sg34
S'Oxygen'
p203
sbsg36
g37
(g38
(I0
tS'b'
tRp204
(I1
(I3
tg41
I00
S'\xee\xc3A\x02\xefC\x11@\xb4[%+\xa0[\xfc\xbf\x81\xa9\xccyAx\xbb?'
tbsg42
(lp205
sbassI60
(dp206
g6
(lp207
g8
(g16
g10
NtRp208
(dp209
g19
g8
(g20
g10
NtRp210
(dp211
g23
S'O1'
p212
sg25
I1
sg26
F-0.25024668104089182
sg27
S'A'
sg28
S'O'
sg29
S'LIG'
p213
sg31
S'O3'
p214
sg33
F15.9994
sg34
S'Oxygen'
p215
sbsg36
g37
(g38
(I0
tS'b'
tRp216
(I1
(I3
tg41
I00
S'\xf0\xc3A\x02\xefC\x15@P\xb7JV@\xb7\xe8\xbf\xf9\xa9\xccyAx\xbb?'
tbsg42
(lp217
sbassI61
(dp218
g6
(lp219
g8
(g16
g10
NtRp220
(dp221
g19
g8
(g20
g10
NtRp222
(dp223
g23
S'H'
sg25
I1
sg26
F0.41699999999999998
sg27
S'A'
sg28
S'H'
sg29
S'ELT'
p224
sg31
S'H'
sg33
F1.0079400000000001
sg34
S'H'
sbsg36
g37
(g38
(I0
tS'b'
tRp225
(I1
(I3
tg40
(S'f8'
I0
I1
tRp226
(I3
S'<'
NNNI-1
I-1
I0
tbI00
S'\x7f\x87r.\xd9\xbe\xd0\xbf\x80\x17xj\xc62\xa8\xbf\x9e\x97.\xc7\xea\x06\xf3?'
tbsg42
(lp227
sbassI62
(dp228
g6
(lp229
g8
(g16
g10
NtRp230
(dp231
g19
g8
(g20
g10
NtRp232
(dp233
g23
S'H'
sg25
I1
sg26
F0.41699999999999998
sg27
S'A'
sg28
S'H'
sg29
g224
sg31
S'H'
sg33
F1.0079400000000001
sg34
S'H'
sbsg36
g37
(g38
(I0
tS'b'
tRp234
(I1
(I3
tg226
I00
S'\xbcm\xc8\x11\xc6\xba\xcb\xbf\x006\xe1\x89OH\x89\xbfI\x8e\x8af\xa18\xf4\xbf'
tbsg42
(lp235
sbassI63
(dp236
g6
(lp237
g8
(g16
g10
NtRp238
(dp239
g19
g8
(g20
g10
NtRp240
(dp241
g23
S'H'
sg25
I1
sg26
F0.41699999999999998
sg27
S'A'
sg28
S'H'
sg29
g224
sg31
S'H'
sg33
F1.0079400000000001
sg34
S'H'
sbsg36
g37
(g38
(I0
tS'b'
tRp242
(I1
(I3
tg226
I00
S'\xdf\x9b \x0fI\xbe\xe6?\xc8W\x86;*\xad\xef\xbf\xc4C\xab\x0f\x05\xbb\xf1?'
tbsg42
(lp243
sbasssS'atomTypesTable'
p244
(dp245
sS'solvent'
p246
I00
sS'matrix'
p247
(lp248
(lp249
I1
aI0
aI0
aI0
aa(lp250
I0
aI1
aI0
aI0
aa(lp251
I0
aI0
aI1
aI0
aa(lp252
I0
aI0
aI0
aI1
aasS'graph'
p253
(dp254
sg31
S'PSSne'
p255
sS'edge'
p256
(dp257
I3
(dp258
I8
(dp259
sI57
(dp260
sI4
(dp261
ssI4
(dp262
I3
g261
sI5
(dp263
sI15
(dp264
ssI5
(dp265
I16
(dp266
sI4
g263
sI6
(dp267
ssI6
(dp268
I7
(dp269
sI21
(dp270
sI5
g267
sI63
(dp271
ssI7
(dp272
I8
(dp273
sI18
(dp274
sI6
g269
ssI8
(dp275
I19
(dp276
sI3
g259
sI7
g273
ssI15
(dp277
I4
g264
ssI16
(dp278
I5
g266
ssI18
(dp279
I7
g274
ssI19
(dp280
I8
g276
ssI21
(dp281
I22
(dp282
sI6
g270
ssI22
(dp283
I24
(dp284
sI21
g282
sI62
(dp285
sI61
(dp286
ssI24
(dp287
I22
g284
ssI57
(dp288
I59
(dp289
sI58
(dp290
sI3
g260
sI60
(dp291
ssI58
(dp292
I57
g290
ssI59
(dp293
I57
g289
ssI60
(dp294
I57
g291
ssI61
(dp295
I22
g286
ssI62
(dp296
I22
g285
ssI63
(dp297
I6
g271
sssS'forceField'
p298
g8
(clib.chemicalGraph.molecule.ForceField
ForceField
p299
g10
NtRp300
(dp301
S'_NONBONDED'
p302
(dp303
S'C'
(lp304
F-0.032000000000000001
aF2
aF0
asS'H2'
p305
(lp306
F-0.014999999999999999
aF1.4590000000000001
aF0.063100000000000003
asS'H'
(lp307
F-0.029999999999999999
aF1.3582000000000001
aF0
asS'O'
(lp308
F-0.095699999999999993
aF1.7022999999999999
aF-0.61299999999999999
asS'S'
(lp309
F-0.34399999999999997
aF2.0150000000000001
aF1.1060000000000001
asg108
(lp310
F-0.014999999999999999
aF1.4590000000000001
aF0.1069
asg50
(lp311
F-0.1094
aF2.0579999999999998
aF-0.090499999999999997
asg62
(lp312
F-0.1094
aF2.0579999999999998
aF-0.1133
asg74
(lp313
F-0.085999999999999993
aF2
aF-0.055599999999999997
asg212
(lp314
F-0.095699999999999993
aF1.7022999999999999
aF-0.61299999999999999
asg24
(lp315
F-0.032000000000000001
aF1.9079999999999999
aF-0.14380000000000001
assS'_IMPROPER'
p316
(dp317
sS'_HBONDS'
p318
(dp319
sS'filename'
p320
NsS'_BONDS'
p321
(dp322
(g50
g108
tp323
(lp324
F367
aF1.0800000000000001
as(S'C'
S'H'
tp325
(lp326
F309
aF1.111
as(g24
S'S'
tp327
(lp328
F350
aF1.74
as(g62
g50
tp329
(lp330
F469
aF1.3999999999999999
as(S'O'
S'S'
tp331
(lp332
F350
aF1.48
as(g74
S'H'
tp333
(lp334
F309
aF1.111
as(g74
S'C'
tp335
(lp336
F0
aF0
as(S'Ho'
p337
g212
tp338
(lp339
F566
aF0.95999999999999996
as(g24
g50
tp340
(lp341
F0
aF0
as(g50
g24
tp342
(lp343
F469
aF1.3999999999999999
as(S'C'
S'C'
tp344
(lp345
F222.5
aF1.48
as(g62
g305
tp346
(lp347
F367
aF1.0800000000000001
as(g212
S'S'
tp348
(lp349
F350
aF1.48
as(g74
g62
tp350
(lp351
F317
aF1.51
as(S'C'
g74
tp352
(lp353
F222.5
aF1.48
assS'_ANGLES'
p354
(dp355
(g74
S'C'
S'H'
tp356
(lp357
F34.5
aF110.09999999999999
as(g50
g24
g50
tp358
(lp359
F63
aF120
as(S'H'
S'C'
S'H'
tp360
(lp361
F0
aF0
as(g50
g24
S'S'
tp362
(lp363
F70
aF120
as(S'O'
S'S'
g212
tp364
(lp365
F175
aF115.5
as(g24
S'S'
S'O'
tp366
(lp367
F70
aF120
as(g24
g50
g108
tp368
(lp369
F35
aF120
as(S'C'
g74
g62
tp370
(lp371
F53.350000000000001
aF111
as(g337
g212
S'S'
tp372
(lp373
F0
aF0
as(S'C'
S'C'
g74
tp374
(lp375
F53.350000000000001
aF111
as(g74
g62
g305
tp376
(lp377
F35
aF120
as(g62
g50
g24
tp378
(lp379
F70
aF120
as(g74
S'C'
S'C'
tp380
(lp381
F0
aF0
as(g24
S'S'
g212
tp382
(lp383
F70
aF120
as(g62
g74
S'C'
tp384
(lp385
F0
aF0
as(g50
g62
g305
tp386
(lp387
F35
aF120
as(g62
g74
S'H'
tp388
(lp389
F0
aF0
as(g62
g50
g108
tp390
(lp391
F35
aF120
as(S'O'
S'S'
S'O'
tp392
(lp393
F175
aF115.5
as(g74
g62
g50
tp394
(lp395
F60
aF109.47
as(S'C'
S'C'
S'H'
tp396
(lp397
F34.5
aF110.09999999999999
as(g24
g50
g62
tp398
(lp399
F0
aF0
as(g62
g74
g62
tp400
(lp401
F63
aF109.47
as(S'C'
g74
S'H'
tp402
(lp403
F0
aF0
assS'_MASS'
p404
(dp405
S'C'
F0
sg305
F0
sS'H'
F0
sS'H1'
p406
F0
sS'H4'
p407
F0
sg212
F0
sS'S'
F0
sS'O'
F0
sS'H3'
p408
F0
sS'C3'
p409
F0
sS'C2'
p410
F0
sS'C1'
p411
F0
sS'C7'
p412
F0
sS'C6'
p413
F0
sS'C5'
p414
F0
sS'C4'
p415
F0
ssS'molname'
p416
S'(molecule)'
p417
sS'_DIHEDRALS'
p418
(dp419
(g62
g74
S'C'
S'C'
tp420
(lp421
F0
aI0
aF0
as(g74
g62
g50
g108
tp422
(lp423
F0.20000000000000001
aF3
aF0
as(S'C'
g74
g62
g305
tp424
(lp425
F0.20000000000000001
aF3
aF0
as(S'C'
g74
g62
g50
tp426
(lp427
F0.20000000000000001
aF3
aI0
as(g24
S'S'
g212
g337
tp428
(lp429
F0
aI0
aF0
as(g50
g24
S'S'
g212
tp430
(lp431
F0
aI0
aF0
as(g50
g62
g74
g62
tp432
(lp433
F0
aI0
aF0
as(g62
g74
S'C'
S'H'
tp434
(lp435
F0.20000000000000001
aF3
aF0
as(S'C'
S'C'
g74
g62
tp436
(lp437
F2.3100000000000001
aF3
aF180
as(g62
g74
g62
g305
tp438
(lp439
F0.20000000000000001
aF3
aF0
as(g108
g50
g62
g305
tp440
(lp441
F0
aI0
aF0
as(g120
g62
g50
g108
tp442
(lp443
F0.20000000000000001
aF3
aI0
as(g50
g24
g50
g62
tp444
(lp445
F0
aI0
aF0
as(g337
g212
S'S'
S'O'
tp446
(lp447
F0
aI0
aF0
as(g62
g50
g24
S'S'
tp448
(lp449
F0
aI0
aF0
as(g50
g24
S'S'
S'O'
tp450
(lp451
F0
aI0
aF0
as(g24
g50
g62
g305
tp452
(lp453
F0.20000000000000001
aF3
aF0
as(S'H'
S'C'
S'C'
S'H'
tp454
(lp455
F0.20000000000000001
aF3
aF0
as(g50
g62
g74
S'C'
tp456
(lp457
F0
aI0
aF0
as(g62
g74
g62
g50
tp458
(lp459
F2.3100000000000001
aF3
aF180
as(g74
g62
g50
g24
tp460
(lp461
F2.3100000000000001
aF3
aF180
as(g62
g50
g24
g50
tp462
(lp463
F2.3100000000000001
aF3
aF180
as(g108
g50
g24
S'S'
tp464
(lp465
F0
aI0
aF0
as(g50
g24
g50
g108
tp466
(lp467
F0.20000000000000001
aF3
aF0
as(g74
S'C'
S'C'
S'H'
tp468
(lp469
F0.20000000000000001
aF3
aF0
assbsS'adj'
p470
g257
sbassS'PSSns_2'
p471
(dp472
g6
(lp473
g8
(g9
g10
NtRp474
(dp475
g2
(dp476
I3
(dp477
g6
(lp478
g8
(g16
g10
NtRp479
(dp480
g19
g8
(g20
g10
NtRp481
(dp482
g23
g24
sg25
I1
sg26
F-0.023724351092772298
sg27
S'A'
sg28
S'C'
sg29
g30
sg31
g32
sg33
F12.0107
sg34
g35
sbsg36
g37
(g38
(I0
tS'b'
tRp483
(I1
(I3
tg41
I00
S'\xa2>\xeb\x84\x91\xf5\x0b@0ep\xa6\x9a\xe4\xe5\xbf@\xe8\x14w\x1d\xa5\xb3?'
tbsg42
(lp484
sbassI4
(dp485
g6
(lp486
g8
(g16
g10
NtRp487
(dp488
g19
g8
(g20
g10
NtRp489
(dp490
g23
g50
sg25
I1
sg26
F-0.054553844020285638
sg27
S'A'
sg28
S'C'
sg29
g51
sg31
g52
sg33
F12.0107
sg34
g53
sbsg36
g37
(g38
(I0
tS'b'
tRp491
(I1
(I3
tg41
I00
S'\xa2>\xeb\x84\x91\xf5\x07@\xdc\x92\x1d$p\xcd\xf8\xbfp\xe8\x14w\x1d\xa5\xb3?'
tbsg42
(lp492
sbassI5
(dp493
g6
(lp494
g8
(g16
g10
NtRp495
(dp496
g19
g8
(g20
g10
NtRp497
(dp498
g23
g62
sg25
I1
sg26
F-0.061201460917836327
sg27
S'A'
sg28
S'C'
sg29
g63
sg31
g64
sg33
F12.0107
sg34
g65
sbsg36
g37
(g38
(I0
tS'b'
tRp499
(I1
(I3
tg41
I00
S'U}\xd6\t#\xeb\xff?\xec\x92\x1d$p\xcd\xf8\xbf\x18\xe8\x14w\x1d\xa5\xb3?'
tbsg42
(lp500
sbassI6
(dp501
g6
(lp502
g8
(g16
g10
NtRp503
(dp504
g19
g8
(g20
g10
NtRp505
(dp506
g23
g74
sg25
I1
sg26
F-0.061723031912765083
sg27
S'A'
sg28
S'C'
sg29
g75
sg31
g76
sg33
F12.0107
sg34
g77
sbsg36
g37
(g38
(I0
tS'b'
tRp507
(I1
(I3
tg41
I00
S'T}\xd6\t#\xeb\xf7?0ep\xa6\x9a\xe4\xe5\xbf\xd0\xe7\x14w\x1d\xa5\xb3?'
tbsg42
(lp508
sbassI7
(dp509
g6
(lp510
g8
(g16
g10
NtRp511
(dp512
g19
g8
(g20
g10
NtRp513
(dp514
g23
g62
sg25
I1
sg26
F-0.061201460917836327
sg27
S'A'
sg28
S'C'
sg29
g86
sg31
g87
sg33
F12.0107
sg34
g88
sbsg36
g37
(g38
(I0
tS'b'
tRp515
(I1
(I3
tg41
I00
S'U}\xd6\t#\xeb\xff?@\xd0\xc6\xc9\xf2I\xc7?\xe0\xe7\x14w\x1d\xa5\xb3?'
tbsg42
(lp516
sbassI8
(dp517
g6
(lp518
g8
(g16
g10
NtRp519
(dp520
g19
g8
(g20
g10
NtRp521
(dp522
g23
g50
sg25
I1
sg26
F-0.054553844020285638
sg27
S'A'
sg28
S'C'
sg29
g97
sg31
g98
sg33
F12.0107
sg34
g99
sbsg36
g37
(g38
(I0
tS'b'
tRp523
(I1
(I3
tg41
I00
S'\xa2>\xeb\x84\x91\xf5\x07@@\xd0\xc6\xc9\xf2I\xc7?\x00\xe8\x14w\x1d\xa5\xb3?'
tbsg42
(lp524
sbassI15
(dp525
g6
(lp526
g8
(g16
g10
NtRp527
(dp528
g19
g8
(g20
g10
NtRp529
(dp530
g23
g108
sg25
I1
sg26
F0.062344200605142688
sg27
S'A'
sg28
S'H'
sg29
g109
sg31
g110
sg33
F1.0079400000000001
sg34
g111
sbsg36
g37
(g38
(I0
tS'b'
tRp531
(I1
(I3
tg41
I00
S'"S\x99\xccrp\n@\xe8\x908LJ\xb2\x00\xc0\x18\xe8\x14w\x1d\xa5\xb3?'
tbsg42
(lp532
sbassI16
(dp533
g6
(lp534
g8
(g16
g10
NtRp535
(dp536
g19
g8
(g20
g10
NtRp537
(dp538
g23
g120
sg25
I1
sg26
F0.061775861220190055
sg27
S'A'
sg28
S'H'
sg29
g121
sg31
g122
sg33
F1.0079400000000001
sg34
g123
sbsg36
g37
(g38
(I0
tS'b'
tRp539
(I1
(I3
tg41
I00
S'TTzz`\xf5\xfa?\xe8\x908LJ\xb2\x00\xc0 \xe8\x14w\x1d\xa5\xb3?'
tbsg42
(lp540
sbassI18
(dp541
g6
(lp542
g8
(g16
g10
NtRp543
(dp544
g19
g8
(g20
g10
NtRp545
(dp546
g23
g120
sg25
I1
sg26
F0.061775861220190055
sg27
S'A'
sg28
S'H'
sg29
g132
sg31
g133
sg33
F1.0079400000000001
sg34
g134
sbsg36
g37
(g38
(I0
tS'b'
tRp547
(I1
(I3
tg41
I00
S'TTzz`\xf5\xfa?\xd0\xd1\x18\x9b\xc5\x00\xe7?\x00\xe8\x14w\x1d\xa5\xb3?'
tbsg42
(lp548
sbassI19
(dp549
g6
(lp550
g8
(g16
g10
NtRp551
(dp552
g19
g8
(g20
g10
NtRp553
(dp554
g23
g108
sg25
I1
sg26
F0.062344200605142688
sg27
S'A'
sg28
S'H'
sg29
g143
sg31
g144
sg33
F1.0079400000000001
sg34
g145
sbsg36
g37
(g38
(I0
tS'b'
tRp555
(I1
(I3
tg41
I00
S'\x1eS\x99\xccrp\n@\xf0\xd1\x18\x9b\xc5\x00\xe7?(\xe8\x14w\x1d\xa5\xb3?'
tbsg42
(lp556
sbassI21
(dp557
g6
(lp558
g8
(g16
g10
NtRp559
(dp560
g19
g8
(g20
g10
NtRp561
(dp562
g23
S'C'
sg25
I1
sg26
F0.14715600000000001
sg27
S'A'
sg28
S'C'
sg29
g154
sg31
S'C'
sg33
F12.0107
sg34
S'C'
sbsg36
g37
(g38
(I0
tS'b'
tRp563
(I1
(I3
tg41
I00
S'g\x14<\r\xd3\x08\xe4?\xf0\xb4\xe4UF\xf8\xe9\xbf@\xf4\xb12\x86\xe5\xbe?'
tbsg42
(lp564
sbassI22
(dp565
g6
(lp566
g8
(g16
g10
NtRp567
(dp568
g19
g8
(g20
g10
NtRp569
(dp570
g23
S'C'
sg25
I1
sg26
F0.14715600000000001
sg27
S'A'
sg28
S'C'
sg29
g154
sg31
S'C'
sg33
F12.0107
sg34
S'C'
sbsg36
g37
(g38
(I0
tS'b'
tRp571
(I1
(I3
tg41
I00
S'\x9c\x1e\xbd\x01\x19\xf0\xcc?\x80\xba#\xb4g\xca\xbf?\xc2\x1f\xe7\x12\xd92\xa4\xbf'
tbsg42
(lp572
sbassI23
(dp573
g6
(lp574
g8
(g16
g10
NtRp575
(dp576
g19
g8
(g20
g10
NtRp577
(dp578
g23
S'H'
sg25
I1
sg26
F0.41699999999999998
sg27
S'A'
sg28
S'H'
sg29
g154
sg31
S'H'
sg33
F1.0079400000000001
sg34
S'H'
sbsg36
g37
(g38
(I0
tS'b'
tRp579
(I1
(I3
tg41
I00
S'@\x01%^J\xdd\xb9?<n8t\x8bL\xff\xbfQI\xb7T\x8a\x0b\xba\xbf'
tbsg42
(lp580
sbassI57
(dp581
g6
(lp582
g8
(g16
g10
NtRp583
(dp584
g19
g8
(g20
g10
NtRp585
(dp586
g23
S'S'
sg25
I1
sg26
F0.10279620598469805
sg27
S'A'
sg28
S'S'
sg29
g179
sg31
g180
sg33
F32.064999999999998
sg34
g181
sbsg36
g37
(g38
(I0
tS'b'
tRp587
(I1
(I3
tg41
I00
S'\xa1\r!\x8f\xceW\x11@\xa0\xca\x92M\xc0)\xe7\xbf\x90\xb7\xda\x02\xc5\xf1\xb9?'
tbsg42
(lp588
sbassI58
(dp589
g6
(lp590
g8
(g16
g10
NtRp591
(dp592
g19
g8
(g20
g10
NtRp593
(dp594
g23
S'O'
sg25
I1
sg26
F-0.14266891092101905
sg27
S'A'
sg28
S'O'
sg29
g190
sg31
g191
sg33
F15.9994
sg34
g192
sbsg36
g37
(g38
(I0
tS'b'
tRp595
(I1
(I3
tg41
I00
S'\xa3\r!\x8f\xceW\x11@\xc0j\xdad\x7f\xac\xd1?\xb0\xb7\xda\x02\xc5\xf1\xb9?'
tbsg42
(lp596
sbassI59
(dp597
g6
(lp598
g8
(g16
g10
NtRp599
(dp600
g19
g8
(g20
g10
NtRp601
(dp602
g23
S'O'
sg25
I1
sg26
F-0.14266891092101905
sg27
S'A'
sg28
S'O'
sg29
g201
sg31
g202
sg33
F15.9994
sg34
g203
sbsg36
g37
(g38
(I0
tS'b'
tRp603
(I1
(I3
tg41
I00
S'\xa5\r!\x8f\xceW\x11@<e\xc9&\xe0\x94\xfb\xbf\x08\xb7\xda\x02\xc5\xf1\xb9?'
tbsg42
(lp604
sbassI60
(dp605
g6
(lp606
g8
(g16
g10
NtRp607
(dp608
g19
g8
(g20
g10
NtRp609
(dp610
g23
g212
sg25
I1
sg26
F-0.25024668104089182
sg27
S'A'
sg28
S'O'
sg29
g213
sg31
g214
sg33
F15.9994
sg34
g215
sbsg36
g37
(g38
(I0
tS'b'
tRp611
(I1
(I3
tg41
I00
S'\xa7\r!\x8f\xceW\x15@`\xca\x92M\xc0)\xe7\xbf\x80\xb7\xda\x02\xc5\xf1\xb9?'
tbsg42
(lp612
sbassI61
(dp613
g6
(lp614
g8
(g16
g10
NtRp615
(dp616
g19
g8
(g20
g10
NtRp617
(dp618
g23
S'H'
sg25
I1
sg26
F0.41699999999999998
sg27
S'A'
sg28
S'H'
sg29
g224
sg31
S'H'
sg33
F1.0079400000000001
sg34
S'H'
sbsg36
g37
(g38
(I0
tS'b'
tRp619
(I1
(I3
tg226
I00
S'\r\xd8\xfb\xc0\xc0\x01\xcf\xbf\x00\xf0\xd6 D\xa7T?vx\xbf\xff\x82\xee\xf2?'
tbsg42
(lp620
sbassI62
(dp621
g6
(lp622
g8
(g16
g10
NtRp623
(dp624
g19
g8
(g20
g10
NtRp625
(dp626
g23
S'H'
sg25
I1
sg26
F0.41699999999999998
sg27
S'A'
sg28
S'H'
sg29
g224
sg31
S'H'
sg33
F1.0079400000000001
sg34
S'H'
sbsg36
g37
(g38
(I0
tS'b'
tRp627
(I1
(I3
tg226
I00
S'\xcc6\xdfu\xd4>\xc9\xbf\x80\x81\x06\xa9\xec\x85\xa2?q\xad\xf9-\tQ\xf4\xbf'
tbsg42
(lp628
sbassI63
(dp629
g6
(lp630
g8
(g16
g10
NtRp631
(dp632
g19
g8
(g20
g10
NtRp633
(dp634
g23
S'H'
sg25
I1
sg26
F0.41699999999999998
sg27
S'A'
sg28
S'H'
sg29
g224
sg31
S'H'
sg33
F1.0079400000000001
sg34
S'H'
sbsg36
g37
(g38
(I0
tS'b'
tRp635
(I1
(I3
tg226
I00
S'\x9b\xe9\x1avE]\xe7?\xd8j\xce2\xaa\x1f\xee\xbf\x9c$<H\x9d\xa2\xf1?'
tbsg42
(lp636
sbasssg244
(dp637
sg246
I00
sg247
(lp638
(lp639
I1
aI0
aI0
aI0
aa(lp640
I0
aI1
aI0
aI0
aa(lp641
I0
aI0
aI1
aI0
aa(lp642
I0
aI0
aI0
aI1
aasg253
(dp643
sg31
S'PSSns'
p644
sg256
(dp645
I3
(dp646
I8
(dp647
sI57
(dp648
sI4
(dp649
ssI4
(dp650
I3
g649
sI5
(dp651
sI15
(dp652
ssI5
(dp653
I16
(dp654
sI4
g651
sI6
(dp655
ssI6
(dp656
I7
(dp657
sI21
(dp658
sI5
g655
sI63
(dp659
ssI7
(dp660
I8
(dp661
sI18
(dp662
sI6
g657
ssI8
(dp663
I19
(dp664
sI3
g647
sI7
g661
ssI15
(dp665
I4
g652
ssI16
(dp666
I5
g654
ssI18
(dp667
I7
g662
ssI19
(dp668
I8
g664
ssI21
(dp669
I22
(dp670
sI6
g658
sI23
(dp671
ssI22
(dp672
I21
g670
sI62
(dp673
sI61
(dp674
ssI23
(dp675
I21
g671
ssI57
(dp676
I59
(dp677
sI58
(dp678
sI3
g648
sI60
(dp679
ssI58
(dp680
I57
g678
ssI59
(dp681
I57
g677
ssI60
(dp682
I57
g679
ssI61
(dp683
I22
g674
ssI62
(dp684
I22
g673
ssI63
(dp685
I6
g659
sssg298
g8
(g299
g10
NtRp686
(dp687
g302
(dp688
S'C'
(lp689
F-0.032000000000000001
aF2
aF0
asg305
(lp690
F-0.014999999999999999
aF1.4590000000000001
aF0.063100000000000003
asS'H'
(lp691
F-0.029999999999999999
aF1.3582000000000001
aF0
asS'O'
(lp692
F-0.095699999999999993
aF1.7022999999999999
aF-0.61299999999999999
asS'S'
(lp693
F-0.34399999999999997
aF2.0150000000000001
aF1.1060000000000001
asg108
(lp694
F-0.014999999999999999
aF1.4590000000000001
aF0.1069
asg50
(lp695
F-0.1094
aF2.0579999999999998
aF-0.090499999999999997
asg62
(lp696
F-0.1094
aF2.0579999999999998
aF-0.1133
asg74
(lp697
F-0.085999999999999993
aF2
aF-0.055599999999999997
asg212
(lp698
F-0.095699999999999993
aF1.7022999999999999
aF-0.61299999999999999
asg24
(lp699
F-0.032000000000000001
aF1.9079999999999999
aF-0.14380000000000001
assg316
(dp700
sg318
(dp701
sg320
Nsg321
(dp702
g323
(lp703
F367
aF1.0800000000000001
asg325
(lp704
F309
aF1.111
asg327
(lp705
F350
aF1.74
asg329
(lp706
F469
aF1.3999999999999999
asg331
(lp707
F350
aF1.48
as(g74
S'H'
tp708
(lp709
F309
aF1.111
asg335
(lp710
F0
aF0
asg338
(lp711
F566
aF0.95999999999999996
asg340
(lp712
F0
aF0
asg342
(lp713
F469
aF1.3999999999999999
asg344
(lp714
F222.5
aF1.48
asg346
(lp715
F367
aF1.0800000000000001
asg348
(lp716
F350
aF1.48
asg350
(lp717
F317
aF1.51
asg352
(lp718
F222.5
aF1.48
assg354
(dp719
g356
(lp720
F34.5
aF110.09999999999999
asg358
(lp721
F63
aF120
as(S'H'
S'C'
S'H'
tp722
(lp723
F0
aF0
asg362
(lp724
F70
aF120
asg364
(lp725
F175
aF115.5
asg366
(lp726
F70
aF120
asg368
(lp727
F35
aF120
asg370
(lp728
F53.350000000000001
aF111
asg372
(lp729
F0
aF0
asg374
(lp730
F53.350000000000001
aF111
asg376
(lp731
F35
aF120
asg378
(lp732
F70
aF120
asg380
(lp733
F0
aF0
asg382
(lp734
F70
aF120
asg384
(lp735
F0
aF0
asg386
(lp736
F35
aF120
as(g62
g74
S'H'
tp737
(lp738
F0
aF0
asg390
(lp739
F35
aF120
asg392
(lp740
F175
aF115.5
asg394
(lp741
F60
aF109.47
asg396
(lp742
F34.5
aF110.09999999999999
asg398
(lp743
F0
aF0
asg400
(lp744
F63
aF109.47
as(S'C'
g74
S'H'
tp745
(lp746
F0
aF0
assg404
(dp747
S'C'
F0
sg305
F0
sS'H'
F0
sg406
F0
sg407
F0
sg212
F0
sS'S'
F0
sS'O'
F0
sg408
F0
sg409
F0
sg410
F0
sg411
F0
sg412
F0
sg413
F0
sg414
F0
sg415
F0
ssg416
g417
sg418
(dp748
g420
(lp749
F0
aI0
aF0
asg422
(lp750
F0.20000000000000001
aF3
aF0
asg424
(lp751
F0.20000000000000001
aF3
aF0
asg426
(lp752
F0.20000000000000001
aF3
aI0
asg428
(lp753
F0
aI0
aF0
asg430
(lp754
F0
aI0
aF0
asg432
(lp755
F0
aI0
aF0
asg434
(lp756
F0.20000000000000001
aF3
aF0
asg436
(lp757
F2.3100000000000001
aF3
aF180
asg438
(lp758
F0.20000000000000001
aF3
aF0
asg440
(lp759
F0
aI0
aF0
asg442
(lp760
F0.20000000000000001
aF3
aI0
asg444
(lp761
F0
aI0
aF0
asg446
(lp762
F0
aI0
aF0
asg448
(lp763
F0
aI0
aF0
asg450
(lp764
F0
aI0
aF0
asg452
(lp765
F0.20000000000000001
aF3
aF0
asg454
(lp766
F0.20000000000000001
aF3
aF0
asg456
(lp767
F0
aI0
aF0
asg458
(lp768
F2.3100000000000001
aF3
aF180
asg460
(lp769
F2.3100000000000001
aF3
aF180
asg462
(lp770
F2.3100000000000001
aF3
aF180
asg464
(lp771
F0
aI0
aF0
asg466
(lp772
F0.20000000000000001
aF3
aF0
asg468
(lp773
F0.20000000000000001
aF3
aF0
assbsg470
g645
sbassS'PSSn_2'
p774
(dp775
g6
(lp776
g8
(g9
g10
NtRp777
(dp778
g2
(dp779
I64
(dp780
g6
(lp781
g8
(g16
g10
NtRp782
(dp783
g19
g8
(g20
g10
NtRp784
(dp785
g23
S'H'
sg25
I1
sg26
F0.41699999999999998
sg27
S'A'
sg28
S'H'
sg29
S'ELT'
p786
sg31
S'H'
sg33
F1.0079400000000001
sg34
S'H'
sbsg36
g37
(g38
(I0
tS'b'
tRp787
(I1
(I3
tg40
(S'f8'
I0
I1
tRp788
(I3
S'<'
NNNI-1
I-1
I0
tbI00
S'\x00\x00\x00\x00\x00\x00\xf0?\x80\x99\x99\x99\x99\x99\xb9\xbf\x00\x00\x00\x00\x00\x00\xf0\xbf'
tbsg42
(lp789
sbassI3
(dp790
g6
(lp791
g8
(g16
g10
NtRp792
(dp793
g19
g8
(g20
g10
NtRp794
(dp795
g23
g24
sg25
I1
sg26
F-0.023724351092772298
sg27
S'A'
sg28
S'C'
sg29
g30
sg31
g32
sg33
F12.0107
sg34
g35
sbsg36
g37
(g38
(I0
tS'b'
tRp796
(I1
(I3
tg41
I00
S'X\x95J\xa3\xccI\x0c@\x80\x86\x87\xbc\xf0L\xe6\xbfh\xb6\x9c\x128\xe3\xc3?'
tbsg42
(lp797
sbassI4
(dp798
g6
(lp799
g8
(g16
g10
NtRp800
(dp801
g19
g8
(g20
g10
NtRp802
(dp803
g23
g50
sg25
I1
sg26
F-0.054553844020285638
sg27
S'A'
sg28
S'C'
sg29
g51
sg31
g52
sg33
F12.0107
sg34
g53
sbsg36
g37
(g38
(I0
tS'b'
tRp804
(I1
(I3
tg41
I00
S'X\x95J\xa3\xccI\x08@\x88#)/\x9b\x01\xf9\xbf\x80\xb6\x9c\x128\xe3\xc3?'
tbsg42
(lp805
sbassI5
(dp806
g6
(lp807
g8
(g16
g10
NtRp808
(dp809
g19
g8
(g20
g10
NtRp810
(dp811
g23
g62
sg25
I1
sg26
F-0.061201460917836327
sg27
S'A'
sg28
S'C'
sg29
g63
sg31
g64
sg33
F12.0107
sg34
g65
sbsg36
g37
(g38
(I0
tS'b'
tRp812
(I1
(I3
tg41
I00
S'a\x95J\xa3\xccI\x00@\x98#)/\x9b\x01\xf9\xbfT\xb6\x9c\x128\xe3\xc3?'
tbsg42
(lp813
sbassI6
(dp814
g6
(lp815
g8
(g16
g10
NtRp816
(dp817
g19
g8
(g20
g10
NtRp818
(dp819
g23
g74
sg25
I1
sg26
F-0.061723031912765083
sg27
S'A'
sg28
S'C'
sg29
g75
sg31
g76
sg33
F12.0107
sg34
g77
sbsg36
g37
(g38
(I0
tS'b'
tRp820
(I1
(I3
tg41
I00
S'\xc0*\x95F\x99\x93\xf8?\x80\x86\x87\xbc\xf0L\xe6\xbf0\xb6\x9c\x128\xe3\xc3?'
tbsg42
(lp821
sbassI7
(dp822
g6
(lp823
g8
(g16
g10
NtRp824
(dp825
g19
g8
(g20
g10
NtRp826
(dp827
g23
g62
sg25
I1
sg26
F-0.061201460917836327
sg27
S'A'
sg28
S'C'
sg29
g86
sg31
g87
sg33
F12.0107
sg34
g88
sbsg36
g37
(g38
(I0
tS'b'
tRp828
(I1
(I3
tg41
I00
S'a\x95J\xa3\xccI\x00@\x00Kjq\x9a\xa8\xc5?8\xb6\x9c\x128\xe3\xc3?'
tbsg42
(lp829
sbassI8
(dp830
g6
(lp831
g8
(g16
g10
NtRp832
(dp833
g19
g8
(g20
g10
NtRp834
(dp835
g23
g50
sg25
I1
sg26
F-0.054553844020285638
sg27
S'A'
sg28
S'C'
sg29
g97
sg31
g98
sg33
F12.0107
sg34
g99
sbsg36
g37
(g38
(I0
tS'b'
tRp836
(I1
(I3
tg41
I00
S'X\x95J\xa3\xccI\x08@\x00Kjq\x9a\xa8\xc5?H\xb6\x9c\x128\xe3\xc3?'
tbsg42
(lp837
sbassI15
(dp838
g6
(lp839
g8
(g16
g10
NtRp840
(dp841
g19
g8
(g20
g10
NtRp842
(dp843
g23
g108
sg25
I1
sg26
F0.062344200605142688
sg27
S'A'
sg28
S'H'
sg29
g109
sg31
g110
sg33
F1.0079400000000001
sg34
g111
sbsg36
g37
(g38
(I0
tS'b'
tRp844
(I1
(I3
tg41
I00
S'\xd8\xa9\xf8\xea\xad\xc4\n@<Y\xbe\xd1_\xcc\x00\xc0T\xb6\x9c\x128\xe3\xc3?'
tbsg42
(lp845
sbassI16
(dp846
g6
(lp847
g8
(g16
g10
NtRp848
(dp849
g19
g8
(g20
g10
NtRp850
(dp851
g23
g120
sg25
I1
sg26
F0.061775861220190055
sg27
S'A'
sg28
S'H'
sg29
g121
sg31
g122
sg33
F1.0079400000000001
sg34
g123
sbsg36
g37
(g38
(I0
tS'b'
tRp852
(I1
(I3
tg41
I00
S'\xc0\x019\xb7\xd6\x9d\xfb?<Y\xbe\xd1_\xcc\x00\xc0X\xb6\x9c\x128\xe3\xc3?'
tbsg42
(lp853
sbassI18
(dp854
g6
(lp855
g8
(g16
g10
NtRp856
(dp857
g19
g8
(g20
g10
NtRp858
(dp859
g23
g120
sg25
I1
sg26
F0.061775861220190055
sg27
S'A'
sg28
S'H'
sg29
g132
sg31
g133
sg33
F1.0079400000000001
sg34
g134
sbsg36
g37
(g38
(I0
tS'b'
tRp860
(I1
(I3
tg41
I00
S'\xc0\x019\xb7\xd6\x9d\xfb?\x80\xb0\x01\x85o\x98\xe6?H\xb6\x9c\x128\xe3\xc3?'
tbsg42
(lp861
sbassI19
(dp862
g6
(lp863
g8
(g16
g10
NtRp864
(dp865
g19
g8
(g20
g10
NtRp866
(dp867
g23
g108
sg25
I1
sg26
F0.062344200605142688
sg27
S'A'
sg28
S'H'
sg29
g143
sg31
g144
sg33
F1.0079400000000001
sg34
g145
sbsg36
g37
(g38
(I0
tS'b'
tRp868
(I1
(I3
tg41
I00
S'\xd4\xa9\xf8\xea\xad\xc4\n@\xa0\xb0\x01\x85o\x98\xe6?\\\xb6\x9c\x128\xe3\xc3?'
tbsg42
(lp869
sbassI21
(dp870
g6
(lp871
g8
(g16
g10
NtRp872
(dp873
g19
g8
(g20
g10
NtRp874
(dp875
g23
S'C'
sg25
I1
sg26
F0.14715600000000001
sg27
S'A'
sg28
S'C'
sg29
g154
sg31
S'C'
sg33
F12.0107
sg34
S'C'
sbsg36
g37
(g38
(I0
tS'b'
tRp876
(I1
(I3
tg41
I00
S'@o\xb9\x86\xbfY\xe5?@\xd6\xfbk\x9c`\xea\xbfh<kpl\x83\xc9?'
tbsg42
(lp877
sbassI22
(dp878
g6
(lp879
g8
(g16
g10
NtRp880
(dp881
g19
g8
(g20
g10
NtRp882
(dp883
g23
S'C'
sg25
I1
sg26
F0.14715600000000001
sg27
S'A'
sg28
S'C'
sg29
g154
sg31
S'C'
sg33
F12.0107
sg34
S'C'
sbsg36
g37
(g38
(I0
tS'b'
tRp884
(I1
(I3
tg41
I00
S'\x00E\xd9s\xe5\x19\xd1?\x00\xb0j\x03\xb7\x87\xbc?`\xe9aI\xcc\x0f\xa4?'
tbsg42
(lp885
sbassI57
(dp886
g6
(lp887
g8
(g16
g10
NtRp888
(dp889
g19
g8
(g20
g10
NtRp890
(dp891
g23
S'S'
sg25
I1
sg26
F0.10279620598469805
sg27
S'A'
sg28
S'S'
sg29
g179
sg31
g180
sg33
F32.064999999999998
sg34
g181
sbsg36
g37
(g38
(I0
tS'b'
tRp892
(I1
(I3
tg41
I00
S'\xfd\xb8P\x1e\xec\x81\x11@\xf0\xeb\xa9c\x16\x92\xe7\xbf\x10\x9e\x7f\xd8\x8b\t\xc7?'
tbsg42
(lp893
sbassI58
(dp894
g6
(lp895
g8
(g16
g10
NtRp896
(dp897
g19
g8
(g20
g10
NtRp898
(dp899
g23
S'O'
sg25
I1
sg26
F-0.14266891092101905
sg27
S'A'
sg28
S'O'
sg29
g190
sg31
g191
sg33
F15.9994
sg34
g192
sbsg36
g37
(g38
(I0
tS'b'
tRp900
(I1
(I3
tg41
I00
S'\xff\xb8P\x1e\xec\x81\x11@ (\xac8\xd3\xdb\xd0? \x9e\x7f\xd8\x8b\t\xc7?'
tbsg42
(lp901
sbassI59
(dp902
g6
(lp903
g8
(g16
g10
NtRp904
(dp905
g19
g8
(g20
g10
NtRp906
(dp907
g23
S'O'
sg25
I1
sg26
F-0.14266891092101905
sg27
S'A'
sg28
S'O'
sg29
g201
sg31
g202
sg33
F15.9994
sg34
g203
sbsg36
g37
(g38
(I0
tS'b'
tRp908
(I1
(I3
tg41
I00
S'\x01\xb9P\x1e\xec\x81\x11@\xe8\xf5\xd41\x0b\xc9\xfb\xbf\xcc\x9d\x7f\xd8\x8b\t\xc7?'
tbsg42
(lp909
sbassI60
(dp910
g6
(lp911
g8
(g16
g10
NtRp912
(dp913
g19
g8
(g20
g10
NtRp914
(dp915
g23
g212
sg25
I1
sg26
F-0.25024668104089182
sg27
S'A'
sg28
S'O'
sg29
g213
sg31
g214
sg33
F15.9994
sg34
g215
sbsg36
g37
(g38
(I0
tS'b'
tRp916
(I1
(I3
tg41
I00
S'\x03\xb9P\x1e\xec\x81\x15@\xb0\xeb\xa9c\x16\x92\xe7\xbf\x08\x9e\x7f\xd8\x8b\t\xc7?'
tbsg42
(lp917
sbassI61
(dp918
g6
(lp919
g8
(g16
g10
NtRp920
(dp921
g19
g8
(g20
g10
NtRp922
(dp923
g23
S'H'
sg25
I1
sg26
F0.41699999999999998
sg27
S'A'
sg28
S'H'
sg29
g224
sg31
S'H'
sg33
F1.0079400000000001
sg34
S'H'
sbsg36
g37
(g38
(I0
tS'b'
tRp924
(I1
(I3
tg226
I00
S'\xa8l\x06\xdb\x0e\xbe\xc9\xbf\x00x\xad\x01\x9d\x80\x87\xbf\xbf\xc0\xa1*\x980\xf4?'
tbsg42
(lp925
sbassI63
(dp926
g6
(lp927
g8
(g16
g10
NtRp928
(dp929
g19
g8
(g20
g10
NtRp930
(dp931
g23
S'H'
sg25
I1
sg26
F0.41699999999999998
sg27
S'A'
sg28
S'H'
sg29
g224
sg31
S'H'
sg33
F1.0079400000000001
sg34
S'H'
sbsg36
g37
(g38
(I0
tS'b'
tRp932
(I1
(I3
tg226
I00
S'tD\x98\xef1\xae\xe8?0\x8c\xe5H\x00\x88\xee\xbf\xe5l\x1es\xb2\xe4\xf2?'
tbsg42
(lp933
sbasssg244
(dp934
sg246
I00
sg247
(lp935
(lp936
I1
aI0
aI0
aI0
aa(lp937
I0
aI1
aI0
aI0
aa(lp938
I0
aI0
aI1
aI0
aa(lp939
I0
aI0
aI0
aI1
aasg253
(dp940
sg31
S'PSSn'
p941
sg256
(dp942
I64
(dp943
I22
(dp944
ssI3
(dp945
I8
(dp946
sI57
(dp947
sI4
(dp948
ssI4
(dp949
I3
g948
sI5
(dp950
sI15
(dp951
ssI5
(dp952
I16
(dp953
sI4
g950
sI6
(dp954
ssI6
(dp955
I7
(dp956
sI21
(dp957
sI5
g954
sI63
(dp958
ssI7
(dp959
I8
(dp960
sI18
(dp961
sI6
g956
ssI8
(dp962
I19
(dp963
sI3
g946
sI7
g960
ssI15
(dp964
I4
g951
ssI16
(dp965
I5
g953
ssI18
(dp966
I7
g961
ssI19
(dp967
I8
g963
ssI21
(dp968
I22
(dp969
sI6
g957
ssI22
(dp970
I64
g944
sI21
g969
sI61
(dp971
ssI57
(dp972
I59
(dp973
sI58
(dp974
sI3
g947
sI60
(dp975
ssI58
(dp976
I57
g974
ssI59
(dp977
I57
g973
ssI60
(dp978
I57
g975
ssI61
(dp979
I22
g971
ssI63
(dp980
I6
g958
sssg298
g8
(g299
g10
NtRp981
(dp982
g302
(dp983
S'C'
(lp984
F-0.032000000000000001
aF2
aF0
asg305
(lp985
F-0.014999999999999999
aF1.4590000000000001
aF0.063100000000000003
asS'H'
(lp986
F-0.029999999999999999
aF1.3582000000000001
aF0
asS'O'
(lp987
F-0.095699999999999993
aF1.7022999999999999
aF-0.61299999999999999
asS'S'
(lp988
F-0.34399999999999997
aF2.0150000000000001
aF1.1060000000000001
asg108
(lp989
F-0.014999999999999999
aF1.4590000000000001
aF0.1069
asg50
(lp990
F-0.1094
aF2.0579999999999998
aF-0.090499999999999997
asg62
(lp991
F-0.1094
aF2.0579999999999998
aF-0.1133
asg74
(lp992
F-0.085999999999999993
aF2
aF-0.055599999999999997
asg212
(lp993
F-0.095699999999999993
aF1.7022999999999999
aF-0.61299999999999999
asg24
(lp994
F-0.032000000000000001
aF1.9079999999999999
aF-0.14380000000000001
assg316
(dp995
sg318
(dp996
sg320
Nsg321
(dp997
g323
(lp998
F367
aF1.0800000000000001
asg325
(lp999
F309
aF1.111
asg327
(lp1000
F350
aF1.74
asg329
(lp1001
F469
aF1.3999999999999999
asg331
(lp1002
F350
aF1.48
as(g74
S'H'
tp1003
(lp1004
F309
aF1.111
asg335
(lp1005
F0
aF0
asg338
(lp1006
F566
aF0.95999999999999996
asg340
(lp1007
F0
aF0
asg350
(lp1008
F317
aF1.51
asg344
(lp1009
F222.5
aF1.48
asg346
(lp1010
F367
aF1.0800000000000001
asg348
(lp1011
F350
aF1.48
asg342
(lp1012
F469
aF1.3999999999999999
asg352
(lp1013
F222.5
aF1.48
assg354
(dp1014
g356
(lp1015
F34.5
aF110.09999999999999
asg358
(lp1016
F63
aF120
as(S'H'
S'C'
S'H'
tp1017
(lp1018
F0
aF0
asg362
(lp1019
F70
aF120
asg364
(lp1020
F175
aF115.5
asg366
(lp1021
F70
aF120
asg378
(lp1022
F70
aF120
asg370
(lp1023
F53.350000000000001
aF111
asg372
(lp1024
F0
aF0
asg374
(lp1025
F53.350000000000001
aF111
asg376
(lp1026
F35
aF120
asg368
(lp1027
F35
aF120
asg380
(lp1028
F0
aF0
asg382
(lp1029
F70
aF120
as(S'C'
g74
S'H'
tp1030
(lp1031
F0
aF0
asg386
(lp1032
F35
aF120
as(g62
g74
S'H'
tp1033
(lp1034
F0
aF0
asg390
(lp1035
F35
aF120
asg392
(lp1036
F175
aF115.5
asg394
(lp1037
F60
aF109.47
asg396
(lp1038
F34.5
aF110.09999999999999
asg398
(lp1039
F0
aF0
asg400
(lp1040
F63
aF109.47
asg384
(lp1041
F0
aF0
assg404
(dp1042
S'C'
F0
sg305
F0
sS'H'
F0
sg406
F0
sg407
F0
sS'S'
F0
sg414
F0
sS'O'
F0
sg408
F0
sg409
F0
sg410
F0
sg411
F0
sg412
F0
sg413
F0
sg212
F0
sg415
F0
ssg416
g417
sg418
(dp1043
g420
(lp1044
F0
aI0
aF0
asg422
(lp1045
F0.20000000000000001
aF3
aF0
asg446
(lp1046
F0
aI0
aF0
asg426
(lp1047
F0.20000000000000001
aF3
aI0
asg428
(lp1048
F0
aI0
aF0
asg430
(lp1049
F0
aI0
aF0
asg432
(lp1050
F0
aI0
aF0
asg434
(lp1051
F0.20000000000000001
aF3
aF0
asg436
(lp1052
F2.3100000000000001
aF3
aF180
asg438
(lp1053
F0.20000000000000001
aF3
aF0
asg440
(lp1054
F0
aI0
aF0
asg442
(lp1055
F0.20000000000000001
aF3
aI0
asg444
(lp1056
F0
aI0
aF0
asg424
(lp1057
F0.20000000000000001
aF3
aF0
asg448
(lp1058
F0
aI0
aF0
asg450
(lp1059
F0
aI0
aF0
asg452
(lp1060
F0.20000000000000001
aF3
aF0
asg454
(lp1061
F0.20000000000000001
aF3
aF0
asg456
(lp1062
F0
aI0
aF0
asg458
(lp1063
F2.3100000000000001
aF3
aF180
asg460
(lp1064
F2.3100000000000001
aF3
aF180
asg462
(lp1065
F2.3100000000000001
aF3
aF180
asg464
(lp1066
F0
aI0
aF0
asg466
(lp1067
F0.20000000000000001
aF3
aF0
asg468
(lp1068
F0.20000000000000001
aF3
aF0
assbsg470
g942
sbassS'PSS1_2'
p1069
(dp1070
g6
(lp1071
g8
(g9
g10
NtRp1072
(dp1073
g2
(dp1074
I3
(dp1075
g6
(lp1076
g8
(g16
g10
NtRp1077
(dp1078
g19
g8
(g20
g10
NtRp1079
(dp1080
g23
S'C8'
p1081
sg25
I1
sg26
F-0.023724351092772298
sg27
S'A'
sg28
S'C'
sg29
g30
sg31
g32
sg33
F12.0107
sg34
g35
sbsg36
g37
(g38
(I0
tS'b'
tRp1082
(I1
(I3
tg41
I00
S'\xa8\x03K\x15\xfb\xc5\x0b@\x90:]un\x01\xe7\xbf\xbdC\x1aE\x87k\xb0?'
tbsg42
(lp1083
sbassI4
(dp1084
g6
(lp1085
g8
(g16
g10
NtRp1086
(dp1087
g19
g8
(g20
g10
NtRp1088
(dp1089
g23
S'C7'
p1090
sg25
I1
sg26
F-0.054553844020285638
sg27
S'A'
sg28
S'C'
sg29
g51
sg31
g52
sg33
F12.0107
sg34
g53
sbsg36
g37
(g38
(I0
tS'b'
tRp1091
(I1
(I3
tg41
I00
S'\xa8\x03K\x15\xfb\xc5\x07@\x88\xfd\x93\x0b\xda[\xf9\xbf\xedC\x1aE\x87k\xb0?'
tbsg42
(lp1092
sbassI5
(dp1093
g6
(lp1094
g8
(g16
g10
NtRp1095
(dp1096
g19
g8
(g20
g10
NtRp1097
(dp1098
g23
S'C6'
p1099
sg25
I1
sg26
F-0.061201460917836327
sg27
S'A'
sg28
S'C'
sg29
g63
sg31
g64
sg33
F12.0107
sg34
g65
sbsg36
g37
(g38
(I0
tS'b'
tRp1100
(I1
(I3
tg41
I00
S'^\x07\x96*\xf6\x8b\xff?\x98\xfd\x93\x0b\xda[\xf9\xbf\x95C\x1aE\x87k\xb0?'
tbsg42
(lp1101
sbassI6
(dp1102
g6
(lp1103
g8
(g16
g10
NtRp1104
(dp1105
g19
g8
(g20
g10
NtRp1106
(dp1107
g23
S'C5'
p1108
sg25
I1
sg26
F-0.061723031912765083
sg27
S'A'
sg28
S'C'
sg29
g75
sg31
g76
sg33
F12.0107
sg34
g77
sbsg36
g37
(g38
(I0
tS'b'
tRp1109
(I1
(I3
tg41
I00
S'^\x07\x96*\xf6\x8b\xf7?\x90:]un\x01\xe7\xbfMC\x1aE\x87k\xb0?'
tbsg42
(lp1110
sbassI7
(dp1111
g6
(lp1112
g8
(g16
g10
NtRp1113
(dp1114
g19
g8
(g20
g10
NtRp1115
(dp1116
g23
g1099
sg25
I1
sg26
F-0.061201460917836327
sg27
S'A'
sg28
S'C'
sg29
g86
sg31
g87
sg33
F12.0107
sg34
g88
sbsg36
g37
(g38
(I0
tS'b'
tRp1117
(I1
(I3
tg41
I00
S'^\x07\x96*\xf6\x8b\xff?\xc0z\x13\x8e\xa3\xd6\xc2?]C\x1aE\x87k\xb0?'
tbsg42
(lp1118
sbassI8
(dp1119
g6
(lp1120
g8
(g16
g10
NtRp1121
(dp1122
g19
g8
(g20
g10
NtRp1123
(dp1124
g23
g1090
sg25
I1
sg26
F-0.054553844020285638
sg27
S'A'
sg28
S'C'
sg29
g97
sg31
g98
sg33
F12.0107
sg34
g99
sbsg36
g37
(g38
(I0
tS'b'
tRp1125
(I1
(I3
tg41
I00
S'\xa8\x03K\x15\xfb\xc5\x07@\xc0z\x13\x8e\xa3\xd6\xc2?}C\x1aE\x87k\xb0?'
tbsg42
(lp1126
sbassI15
(dp1127
g6
(lp1128
g8
(g16
g10
NtRp1129
(dp1130
g19
g8
(g20
g10
NtRp1131
(dp1132
g23
S'H7'
p1133
sg25
I1
sg26
F0.062344200605142688
sg27
S'A'
sg28
S'H'
sg29
g109
sg31
g110
sg33
F1.0079400000000001
sg34
g111
sbsg36
g37
(g38
(I0
tS'b'
tRp1134
(I1
(I3
tg41
I00
S'(\x18\xf9\\\xdc@\n@<\xc6\xf3?\x7f\xf9\x00\xc0\x95C\x1aE\x87k\xb0?'
tbsg42
(lp1135
sbassI16
(dp1136
g6
(lp1137
g8
(g16
g10
NtRp1138
(dp1139
g19
g8
(g20
g10
NtRp1140
(dp1141
g23
S'H6'
p1142
sg25
I1
sg26
F0.061775861220190055
sg27
S'A'
sg28
S'H'
sg29
g121
sg31
g122
sg33
F1.0079400000000001
sg34
g123
sbsg36
g37
(g38
(I0
tS'b'
tRp1143
(I1
(I3
tg41
I00
S'^\xde9\x9b3\x96\xfa?<\xc6\xf3?\x7f\xf9\x00\xc0\x9dC\x1aE\x87k\xb0?'
tbsg42
(lp1144
sbassI18
(dp1145
g6
(lp1146
g8
(g16
g10
NtRp1147
(dp1148
g19
g8
(g20
g10
NtRp1149
(dp1150
g23
g1142
sg25
I1
sg26
F0.061775861220190055
sg27
S'A'
sg28
S'H'
sg29
g132
sg31
g133
sg33
F1.0079400000000001
sg34
g134
sbsg36
g37
(g38
(I0
tS'b'
tRp1151
(I1
(I3
tg41
I00
S'^\xde9\x9b3\x96\xfa?p\xfc+\xcc\xf1\xe3\xe5?}C\x1aE\x87k\xb0?'
tbsg42
(lp1152
sbassI19
(dp1153
g6
(lp1154
g8
(g16
g10
NtRp1155
(dp1156
g19
g8
(g20
g10
NtRp1157
(dp1158
g23
g1133
sg25
I1
sg26
F0.062344200605142688
sg27
S'A'
sg28
S'H'
sg29
g143
sg31
g144
sg33
F1.0079400000000001
sg34
g145
sbsg36
g37
(g38
(I0
tS'b'
tRp1159
(I1
(I3
tg41
I00
S'$\x18\xf9\\\xdc@\n@\x90\xfc+\xcc\xf1\xe3\xe5?\xa5C\x1aE\x87k\xb0?'
tbsg42
(lp1160
sbassI21
(dp1161
g6
(lp1162
g8
(g16
g10
NtRp1163
(dp1164
g19
g8
(g20
g10
NtRp1165
(dp1166
g23
S'C'
sg25
I1
sg26
F0.14715600000000001
sg27
S'A'
sg28
S'C'
sg29
g154
sg31
S'C'
sg33
F12.0107
sg34
S'C'
sbsg36
g37
(g38
(I0
tS'b'
tRp1167
(I1
(I3
tg41
I00
S'~(\xbbNyJ\xe3?P\x8a\xd1$\x1a\x15\xeb\xbf\xbdO\xb7\x00\xf0\xab\xbb?'
tbsg42
(lp1168
sbassI22
(dp1169
g6
(lp1170
g8
(g16
g10
NtRp1171
(dp1172
g19
g8
(g20
g10
NtRp1173
(dp1174
g23
S'C'
sg25
I1
sg26
F0.14715600000000001
sg27
S'A'
sg28
S'C'
sg29
g154
sg31
S'C'
sg33
F12.0107
sg34
S'C'
sbsg36
g37
(g38
(I0
tS'b'
tRp1175
(I1
(I3
tg41
I00
S'\xf7n\xb9\x07\xb2\xf6\xc9?\x80\x0f\xbd<\xc9\xe3\xb6?\xc8h\xdcv\x05\xa6\xaa\xbf'
tbsg42
(lp1176
sbassI23
(dp1177
g6
(lp1178
g8
(g16
g10
NtRp1179
(dp1180
g19
g8
(g20
g10
NtRp1181
(dp1182
g23
S'H'
sg25
I1
sg26
F0.41699999999999998
sg27
S'A'
sg28
S'H'
sg29
g154
sg31
S'H'
sg33
F1.0079400000000001
sg34
S'H'
sbsg36
g37
(g38
(I0
tS'b'
tRp1183
(I1
(I3
tg41
I00
S'\xee\xa1\x1dj|\xea\xb3?\xe8\xd8\xae[\xf5\xda\xff\xbf\xd5\xed\xb1\x86 E\xbd\xbf'
tbsg42
(lp1184
sbassI24
(dp1185
g6
(lp1186
g8
(g16
g10
NtRp1187
(dp1188
g19
g8
(g20
g10
NtRp1189
(dp1190
g23
S'H'
sg25
I1
sg26
F0.41699999999999998
sg27
S'A'
sg28
S'H'
sg29
g154
sg31
S'H'
sg33
F1.0079400000000001
sg34
S'H'
sbsg36
g37
(g38
(I0
tS'b'
tRp1191
(I1
(I3
tg41
I00
S'\x04\x1f\xf9\xff,c\xd2\xbf\xd8\x1f\x96\x93\xf0\xac\xf0?\xd6\x0c\xf2 \x8c\xe0\x8e\xbf'
tbsg42
(lp1192
sbassI57
(dp1193
g6
(lp1194
g8
(g16
g10
NtRp1195
(dp1196
g19
g8
(g20
g10
NtRp1197
(dp1198
g23
S'S'
sg25
I1
sg26
F0.10279620598469805
sg27
S'A'
sg28
S'S'
sg29
g179
sg31
g180
sg33
F32.064999999999998
sg34
g181
sbsg36
g37
(g38
(I0
tS'b'
tRp1199
(I1
(I3
tg41
I00
S'$\xf0PW\x03@\x11@\x00\xa0\x7f\x1c\x94F\xe8\xbf\r\x13\xe0\xd0.\xb8\xb6?'
tbsg42
(lp1200
sbassI58
(dp1201
g6
(lp1202
g8
(g16
g10
NtRp1203
(dp1204
g19
g8
(g20
g10
NtRp1205
(dp1206
g23
S'O3'
p1207
sg25
I1
sg26
F-0.14266891092101905
sg27
S'A'
sg28
S'O'
sg29
g190
sg31
g191
sg33
F15.9994
sg34
g192
sbsg36
g37
(g38
(I0
tS'b'
tRp1208
(I1
(I3
tg41
I00
S'&\xf0PW\x03@\x11@\x00\x80\x01\x8e\xaf\xe5\xce?-\x13\xe0\xd0.\xb8\xb6?'
tbsg42
(lp1209
sbassI59
(dp1210
g6
(lp1211
g8
(g16
g10
NtRp1212
(dp1213
g19
g8
(g20
g10
NtRp1214
(dp1215
g23
g1207
sg25
I1
sg26
F-0.14266891092101905
sg27
S'A'
sg28
S'O'
sg29
g201
sg31
g202
sg33
F15.9994
sg34
g203
sbsg36
g37
(g38
(I0
tS'b'
tRp1216
(I1
(I3
tg41
I00
S'(\xf0PW\x03@\x11@\xe8\xcf?\x0eJ#\xfc\xbf\x85\x12\xe0\xd0.\xb8\xb6?'
tbsg42
(lp1217
sbassI60
(dp1218
g6
(lp1219
g8
(g16
g10
NtRp1220
(dp1221
g19
g8
(g20
g10
NtRp1222
(dp1223
g23
S'O8'
p1224
sg25
I1
sg26
F-0.25024668104089182
sg27
S'A'
sg28
S'O'
sg29
g213
sg31
g214
sg33
F15.9994
sg34
g215
sbsg36
g37
(g38
(I0
tS'b'
tRp1225
(I1
(I3
tg41
I00
S'*\xf0PW\x03@\x15@\xc0\x9f\x7f\x1c\x94F\xe8\xbf\xfd\x12\xe0\xd0.\xb8\xb6?'
tbsg42
(lp1226
sbassI68
(dp1227
g6
(lp1228
g8
(g16
g10
NtRp1229
(dp1230
g19
g8
(g20
g10
NtRp1231
(dp1232
g23
S'H8'
p1233
sg25
I1
sg26
F0.24485623083539299
sg27
S'A'
sg28
S'H'
sg29
S'LIG'
p1234
sg31
S'HO'
p1235
sg33
F1.0079400000000001
sg34
S'Hydrogen'
p1236
sbsg36
g37
(g38
(I0
tS'b'
tRp1237
(I1
(I3
tg41
I00
S"h\xfa'\xfbs}\x16@\x00\x08b\xcf,a\xcc\xbfm\x13\xe0\xd0.\xb8\xb6?"
tbsg42
(lp1238
sbassI69
(dp1239
g6
(lp1240
g8
(g16
g10
NtRp1241
(dp1242
g19
g8
(g20
g10
NtRp1243
(dp1244
g23
S'H'
sg25
I1
sg26
F0.41699999999999998
sg27
S'A'
sg28
S'H'
sg29
S'ELT'
p1245
sg31
S'H'
sg33
F1.0079400000000001
sg34
S'H'
sbsg36
g37
(g38
(I0
tS'b'
tRp1246
(I1
(I3
tg40
(S'f8'
I0
I1
tRp1247
(I3
S'<'
NNNI-1
I-1
I0
tbI00
S'\xa3T\xfb\x13\x863\xc4?\x80\x8b\x14\x1c\xf8\x8e\xb8?B\xd0\xb2A\x0e+\xf1?'
tbsg42
(lp1248
sbassI70
(dp1249
g6
(lp1250
g8
(g16
g10
NtRp1251
(dp1252
g19
g8
(g20
g10
NtRp1253
(dp1254
g23
S'H'
sg25
I1
sg26
F0.41699999999999998
sg27
S'A'
sg28
S'H'
sg29
g1245
sg31
S'H'
sg33
F1.0079400000000001
sg34
S'H'
sbsg36
g37
(g38
(I0
tS'b'
tRp1255
(I1
(I3
tg1247
I00
S'\x18\xda\x8a\xceU\\\xc6?\x00\xa5v\n\x14\x81\xc8?\x145\x94%<\xa0\xec\xbf'
tbsg42
(lp1256
sbassI71
(dp1257
g6
(lp1258
g8
(g16
g10
NtRp1259
(dp1260
g19
g8
(g20
g10
NtRp1261
(dp1262
g23
S'H'
sg25
I1
sg26
F0.41699999999999998
sg27
S'A'
sg28
S'H'
sg29
g1245
sg31
S'H'
sg33
F1.0079400000000001
sg34
S'H'
sbsg36
g37
(g38
(I0
tS'b'
tRp1263
(I1
(I3
tg1247
I00
S'\xa3T\xfb\x13\x863\xc4?H\xb7>~\x10w\xf6\xbfB\xd0\xb2A\x0e+\xf1?'
tbsg42
(lp1264
sbasssg244
(dp1265
sg246
I00
sg247
(lp1266
(lp1267
I1
aI0
aI0
aI0
aa(lp1268
I0
aI1
aI0
aI0
aa(lp1269
I0
aI0
aI1
aI0
aa(lp1270
I0
aI0
aI0
aI1
aasg253
(dp1271
sg31
S'PSS1'
p1272
sg256
(dp1273
I3
(dp1274
I8
(dp1275
sI57
(dp1276
sI4
(dp1277
ssI4
(dp1278
I3
g1277
sI5
(dp1279
sI15
(dp1280
ssI5
(dp1281
I16
(dp1282
sI4
g1279
sI6
(dp1283
ssI6
(dp1284
I7
(dp1285
sI5
g1283
sI21
(dp1286
ssI7
(dp1287
I8
(dp1288
sI18
(dp1289
sI6
g1285
ssI8
(dp1290
I19
(dp1291
sI3
g1275
sI7
g1288
ssI15
(dp1292
I4
g1280
ssI16
(dp1293
I5
g1282
ssI18
(dp1294
I7
g1289
ssI19
(dp1295
I8
g1291
ssI21
(dp1296
I23
(dp1297
sI22
(dp1298
sI6
g1286
sI71
(dp1299
ssI22
(dp1300
I24
(dp1301
sI21
g1298
sI70
(dp1302
sI69
(dp1303
ssI23
(dp1304
I21
g1297
ssI24
(dp1305
I22
g1301
ssI57
(dp1306
I59
(dp1307
sI58
(dp1308
sI3
g1276
sI60
(dp1309
ssI58
(dp1310
I57
g1308
ssI59
(dp1311
I57
g1307
ssI60
(dp1312
I57
g1309
sI68
(dp1313
ssI68
(dp1314
I60
g1313
ssI69
(dp1315
I22
g1303
ssI70
(dp1316
I22
g1302
ssI71
(dp1317
I21
g1299
sssg298
g8
(g299
g10
NtRp1318
(dp1319
g302
(dp1320
S'C'
(lp1321
F-0.14940000000000001
aF2
aF0
asS'H'
(lp1322
F-0.029999999999999999
aF1.3582000000000001
aF0
asg1142
(lp1323
F-0.014999999999999999
aF1.4590000000000001
aF0.063100000000000003
asg1133
(lp1324
F-0.014999999999999999
aF1.4590000000000001
aF0.1069
asS'S'
(lp1325
F-0.34399999999999997
aF2.0150000000000001
aF1.1627959999999999
asg1081
(lp1326
F-0.085999999999999993
aF1.9079999999999999
aF-0.14380000000000001
asg1108
(lp1327
F-0.085999999999999993
aF1.9079999999999999
aF-0.045600000000000002
asg1224
(lp1328
F-0.095699999999999993
aF1.7022999999999999
aF-0.31309999999999999
asg1233
(lp1329
F-0.021999999999999999
aF1.3200000000000001
aF0.22750400000000001
asg1090
(lp1330
F-0.085999999999999993
aF1.9079999999999999
aF-0.090499999999999997
asg1099
(lp1331
F-0.085999999999999993
aF1.9079999999999999
aF-0.1133
asg1207
(lp1332
F-0.095699999999999993
aF1.7022999999999999
aF-0.41010000000000002
assg316
(dp1333
sg318
(dp1334
sg320
Nsg321
(dp1335
(g1207
S'S'
tp1336
(lp1337
F350
aF1.48
as(g1081
S'S'
tp1338
(lp1339
F350
aF1.74
as(S'C'
g1108
tp1340
(lp1341
F317
aF1.51
as(g1081
g1090
tp1342
(lp1343
F0
aF0
as(S'C'
S'H'
tp1344
(lp1345
F309
aF1.111
as(g1108
S'C'
tp1346
(lp1347
F0
aF0
as(g1099
g1090
tp1348
(lp1349
F469
aF1.3999999999999999
as(g1108
g1099
tp1350
(lp1351
F469
aF1.3999999999999999
as(g1233
g1224
tp1352
(lp1353
F566
aF0.95999999999999996
as(g1099
g1142
tp1354
(lp1355
F367
aF1.0800000000000001
as(g1224
S'S'
tp1356
(lp1357
F350
aF1.48
as(S'C'
S'C'
tp1358
(lp1359
F310
aF1.526
as(g1090
g1133
tp1360
(lp1361
F367
aF1.0800000000000001
as(g1090
g1081
tp1362
(lp1363
F469
aF1.3999999999999999
assg354
(dp1364
(S'H'
S'C'
S'H'
tp1365
(lp1366
F0
aF0
as(g1090
g1081
S'S'
tp1367
(lp1368
F70
aF120
as(g1108
S'C'
S'C'
tp1369
(lp1370
F0
aF0
as(S'C'
S'C'
S'H'
tp1371
(lp1372
F34.5
aF110.09999999999999
as(g1081
S'S'
g1224
tp1373
(lp1374
F70
aF120
as(g1090
g1099
g1142
tp1375
(lp1376
F35
aF120
as(g1207
S'S'
g1224
tp1377
(lp1378
F175
aF115.5
as(g1099
g1090
g1081
tp1379
(lp1380
F63
aF120
as(g1108
g1099
g1142
tp1381
(lp1382
F35
aF120
as(g1099
g1090
g1133
tp1383
(lp1384
F35
aF120
as(g1099
g1108
g1099
tp1385
(lp1386
F63
aF120.47
as(g1099
g1108
S'C'
tp1387
(lp1388
F0
aF0
as(g1108
g1099
g1090
tp1389
(lp1390
F63
aF120
as(g1081
g1090
g1099
tp1391
(lp1392
F0
aF0
as(S'C'
S'C'
g1108
tp1393
(lp1394
F60
aF109.47
as(S'C'
g1108
g1099
tp1395
(lp1396
F70
aF120
as(g1081
S'S'
g1207
tp1397
(lp1398
F70
aF120
as(g1233
g1224
S'S'
tp1399
(lp1400
F0
aF0
as(g1207
S'S'
g1207
tp1401
(lp1402
F175
aF115.5
as(g1108
S'C'
S'H'
tp1403
(lp1404
F34.5
aF110.09999999999999
as(g1090
g1081
g1090
tp1405
(lp1406
F63
aF120
as(g1081
g1090
g1133
tp1407
(lp1408
F35
aF120
assg404
(dp1409
S'C'
F0
sg305
F0
sS'H'
F0
sg406
F0
sg407
F0
sS'S'
F0
sg414
F0
sS'O'
F0
sg408
F0
sg409
F0
sg410
F0
sg411
F0
sg412
F0
sg413
F0
sg212
F0
sg415
F0
ssg416
g417
sg418
(dp1410
(g1090
g1081
g1090
g1099
tp1411
(lp1412
F0
aI0
aF0
as(S'C'
g1108
g1099
g1090
tp1413
(lp1414
F0.20000000000000001
aF3
aI0
as(g1142
g1099
g1090
g1133
tp1415
(lp1416
F0.20000000000000001
aF3
aI0
as(S'C'
g1108
g1099
g1142
tp1417
(lp1418
F0.20000000000000001
aF3
aF0
as(g1233
g1224
S'S'
g1207
tp1419
(lp1420
F0
aI0
aF0
as(g1108
g1099
g1090
g1133
tp1421
(lp1422
F0.20000000000000001
aF3
aF0
as(g1090
g1099
g1108
S'C'
tp1423
(lp1424
F0
aI0
aF0
as(g1133
g1090
g1081
S'S'
tp1425
(lp1426
F0
aI0
aF0
as(g1099
g1108
g1099
g1142
tp1427
(lp1428
F0.20000000000000001
aF3
aF0
as(S'C'
S'C'
g1108
g1099
tp1429
(lp1430
F2.3100000000000001
aF3
aF180
as(g1099
g1108
S'C'
S'C'
tp1431
(lp1432
F0
aI0
aF0
as(g1081
g1090
g1099
g1142
tp1433
(lp1434
F0.20000000000000001
aF3
aF0
as(g1090
g1081
g1090
g1133
tp1435
(lp1436
F0.20000000000000001
aF3
aF0
as(g1081
S'S'
g1224
g1233
tp1437
(lp1438
F0
aI0
aF0
as(g1099
g1090
g1081
S'S'
tp1439
(lp1440
F0
aI0
aF0
as(g1099
g1108
S'C'
S'H'
tp1441
(lp1442
F0.20000000000000001
aF3
aF0
as(g1108
S'C'
S'C'
S'H'
tp1443
(lp1444
F0.20000000000000001
aF3
aF0
as(g1133
g1090
g1099
g1142
tp1445
(lp1446
F0
aI0
aF0
as(S'H'
S'C'
S'C'
S'H'
tp1447
(lp1448
F0.20000000000000001
aF3
aF0
as(g1090
g1081
S'S'
g1207
tp1449
(lp1450
F0
aI0
aF0
as(g1090
g1081
S'S'
g1224
tp1451
(lp1452
F0
aI0
aF0
as(g1099
g1108
g1099
g1090
tp1453
(lp1454
F2.3100000000000001
aF3
aF180
as(g1108
g1099
g1090
g1081
tp1455
(lp1456
F2.3100000000000001
aF3
aF180
as(g1090
g1099
g1108
g1099
tp1457
(lp1458
F0
aI0
aF0
as(g1099
g1090
g1081
g1090
tp1459
(lp1460
F2.3100000000000001
aF3
aF180
assbsg470
g1273
sbassS'PSSe_2'
p1461
(dp1462
g6
(lp1463
g8
(g9
g10
NtRp1464
(dp1465
g2
(dp1466
I68
(dp1467
g6
(lp1468
g8
(g16
g10
NtRp1469
(dp1470
g19
g8
(g20
g10
NtRp1471
(dp1472
g23
g1233
sg25
I1
sg26
F0.24485623083539299
sg27
S'A'
sg28
S'H'
sg29
g1234
sg31
g1235
sg33
F1.0079400000000001
sg34
g1236
sbsg36
g37
(g38
(I0
tS'b'
tRp1473
(I1
(I3
tg41
I00
S'Q\xb2\t:\xbd\t\x17@\x00\xf7|\xb2\x9c\x90\xbe\xbf8\x1e\x8c\xd1\xaf\xbf\xc5?'
tbsg42
(lp1474
sbassI3
(dp1475
g6
(lp1476
g8
(g16
g10
NtRp1477
(dp1478
g19
g8
(g20
g10
NtRp1479
(dp1480
g23
g1081
sg25
I1
sg26
F-0.023724351092772298
sg27
S'A'
sg28
S'C'
sg29
g30
sg31
g32
sg33
F12.0107
sg34
g35
sbsg36
g37
(g38
(I0
tS'b'
tRp1481
(I1
(I3
tg41
I00
S'ys\x0e\x93\x8d\xde\x0c@pW\xd4\xd76\xbb\xe3\xbf`6\xa9\x0b\\\x99\xc2?'
tbsg42
(lp1482
sbassI4
(dp1483
g6
(lp1484
g8
(g16
g10
NtRp1485
(dp1486
g19
g8
(g20
g10
NtRp1487
(dp1488
g23
g1090
sg25
I1
sg26
F-0.054553844020285638
sg27
S'A'
sg28
S'C'
sg29
g51
sg31
g52
sg33
F12.0107
sg34
g53
sbsg36
g37
(g38
(I0
tS'b'
tRp1489
(I1
(I3
tg41
I00
S'ys\x0e\x93\x8d\xde\x08@\xf8\x8b\xcf<\xbe\xb8\xf7\xbfx6\xa9\x0b\\\x99\xc2?'
tbsg42
(lp1490
sbassI5
(dp1491
g6
(lp1492
g8
(g16
g10
NtRp1493
(dp1494
g19
g8
(g20
g10
NtRp1495
(dp1496
g23
g1099
sg25
I1
sg26
F-0.061201460917836327
sg27
S'A'
sg28
S'C'
sg29
g63
sg31
g64
sg33
F12.0107
sg34
g65
sbsg36
g37
(g38
(I0
tS'b'
tRp1497
(I1
(I3
tg41
I00
S'\x80s\x0e\x93\x8d\xde\x00@\x08\x8c\xcf<\xbe\xb8\xf7\xbfL6\xa9\x0b\\\x99\xc2?'
tbsg42
(lp1498
sbassI6
(dp1499
g6
(lp1500
g8
(g16
g10
NtRp1501
(dp1502
g19
g8
(g20
g10
NtRp1503
(dp1504
g23
g1108
sg25
I1
sg26
F-0.061723031912765083
sg27
S'A'
sg28
S'C'
sg29
g75
sg31
g76
sg33
F12.0107
sg34
g77
sbsg36
g37
(g38
(I0
tS'b'
tRp1505
(I1
(I3
tg41
I00
S'\x01\xe7\x1c&\x1b\xbd\xf9?pW\xd4\xd76\xbb\xe3\xbf(6\xa9\x0b\\\x99\xc2?'
tbsg42
(lp1506
sbassI7
(dp1507
g6
(lp1508
g8
(g16
g10
NtRp1509
(dp1510
g19
g8
(g20
g10
NtRp1511
(dp1512
g23
g1099
sg25
I1
sg26
F-0.061201460917836327
sg27
S'A'
sg28
S'C'
sg29
g86
sg31
g87
sg33
F12.0107
sg34
g88
sbsg36
g37
(g38
(I0
tS'b'
tRp1513
(I1
(I3
tg41
I00
S'\x80s\x0e\x93\x8d\xde\x00@@\x077\x04\x82\xef\xcf?06\xa9\x0b\\\x99\xc2?'
tbsg42
(lp1514
sbassI8
(dp1515
g6
(lp1516
g8
(g16
g10
NtRp1517
(dp1518
g19
g8
(g20
g10
NtRp1519
(dp1520
g23
g1090
sg25
I1
sg26
F-0.054553844020285638
sg27
S'A'
sg28
S'C'
sg29
g97
sg31
g98
sg33
F12.0107
sg34
g99
sbsg36
g37
(g38
(I0
tS'b'
tRp1521
(I1
(I3
tg41
I00
S'ys\x0e\x93\x8d\xde\x08@@\x077\x04\x82\xef\xcf?@6\xa9\x0b\\\x99\xc2?'
tbsg42
(lp1522
sbassI71
(dp1523
g6
(lp1524
g8
(g16
g10
NtRp1525
(dp1526
g19
g8
(g20
g10
NtRp1527
(dp1528
g23
S'H'
sg25
I1
sg26
F0.41699999999999998
sg27
S'A'
sg28
S'H'
sg29
g1245
sg31
S'H'
sg33
F1.0079400000000001
sg34
S'H'
sbsg36
g37
(g38
(I0
tS'b'
tRp1529
(I1
(I3
tg1247
I00
S'\xdc(\x19\xf8V\xde\xd2?\xb8Ez\xaf\xf4\xd3\xf4\xbf\xd2R\xd6N\x81w\xf2?'
tbsg42
(lp1530
sbassI70
(dp1531
g6
(lp1532
g8
(g16
g10
NtRp1533
(dp1534
g19
g8
(g20
g10
NtRp1535
(dp1536
g23
S'H'
sg25
I1
sg26
F0.41699999999999998
sg27
S'A'
sg28
S'H'
sg29
g1245
sg31
S'H'
sg33
F1.0079400000000001
sg34
S'H'
sbsg36
g37
(g38
(I0
tS'b'
tRp1537
(I1
(I3
tg1247
I00
S'\x96\xeb`\xd5\xbe\xf2\xd3?\xc0\x18M@\xf9\xcc\xd2?\xf4/M\x0bV\x07\xea\xbf'
tbsg42
(lp1538
sbassI15
(dp1539
g6
(lp1540
g8
(g16
g10
NtRp1541
(dp1542
g19
g8
(g20
g10
NtRp1543
(dp1544
g23
g1133
sg25
I1
sg26
F0.062344200605142688
sg27
S'A'
sg28
S'H'
sg29
g109
sg31
g110
sg33
F1.0079400000000001
sg34
g111
sbsg36
g37
(g38
(I0
tS'b'
tRp1545
(I1
(I3
tg41
I00
S"\xf9\x87\xbc\xdanY\x0b@t\x8d\x91X\xf1'\x00\xc0L6\xa9\x0b\\\x99\xc2?"
tbsg42
(lp1546
sbassI16
(dp1547
g6
(lp1548
g8
(g16
g10
NtRp1549
(dp1550
g19
g8
(g20
g10
NtRp1551
(dp1552
g23
g1142
sg25
I1
sg26
F0.061775861220190055
sg27
S'A'
sg28
S'H'
sg29
g121
sg31
g122
sg33
F1.0079400000000001
sg34
g123
sbsg36
g37
(g38
(I0
tS'b'
tRp1553
(I1
(I3
tg41
I00
S"\x01\xbe\xc0\x96X\xc7\xfc?t\x8d\x91X\xf1'\x00\xc0P6\xa9\x0b\\\x99\xc2?"
tbsg42
(lp1554
sbassI18
(dp1555
g6
(lp1556
g8
(g16
g10
NtRp1557
(dp1558
g19
g8
(g20
g10
NtRp1559
(dp1560
g23
g1142
sg25
I1
sg26
F0.061775861220190055
sg27
S'A'
sg28
S'H'
sg29
g132
sg31
g133
sg33
F1.0079400000000001
sg34
g134
sbsg36
g37
(g38
(I0
tS'b'
tRp1561
(I1
(I3
tg41
I00
S'\x01\xbe\xc0\x96X\xc7\xfc?\x90\xdf\xb4i)*\xe9?@6\xa9\x0b\\\x99\xc2?'
tbsg42
(lp1562
sbassI19
(dp1563
g6
(lp1564
g8
(g16
g10
NtRp1565
(dp1566
g19
g8
(g20
g10
NtRp1567
(dp1568
g23
g1133
sg25
I1
sg26
F0.062344200605142688
sg27
S'A'
sg28
S'H'
sg29
g143
sg31
g144
sg33
F1.0079400000000001
sg34
g145
sbsg36
g37
(g38
(I0
tS'b'
tRp1569
(I1
(I3
tg41
I00
S'\xf5\x87\xbc\xdanY\x0b@\xb0\xdf\xb4i)*\xe9?T6\xa9\x0b\\\x99\xc2?'
tbsg42
(lp1570
sbassI21
(dp1571
g6
(lp1572
g8
(g16
g10
NtRp1573
(dp1574
g19
g8
(g20
g10
NtRp1575
(dp1576
g23
S'C'
sg25
I1
sg26
F0.14715600000000001
sg27
S'A'
sg28
S'C'
sg29
g154
sg31
S'C'
sg33
F12.0107
sg34
S'C'
sbsg36
g37
(g38
(I0
tS'b'
tRp1577
(I1
(I3
tg41
I00
S'\xc3\xe7\xc8E\xc3\xac\xe7?0\xa7H\x87\xe2\xce\xe7\xbf`\xbcwi\x909\xc8?'
tbsg42
(lp1578
sbassI22
(dp1579
g6
(lp1580
g8
(g16
g10
NtRp1581
(dp1582
g19
g8
(g20
g10
NtRp1583
(dp1584
g23
S'C'
sg25
I1
sg26
F0.14715600000000001
sg27
S'A'
sg28
S'C'
sg29
g154
sg31
S'C'
sg33
F12.0107
sg34
S'C'
sbsg36
g37
(g38
(I0
tS'b'
tRp1585
(I1
(I3
tg41
I00
S"\x066\xf8\xf1\xec\xbf\xd5?@\x14\x82\x14\xc3\x8a\xc8?x\xd2'[\xb8\xd0\x9d?"
tbsg42
(lp1586
sbassI24
(dp1587
g6
(lp1588
g8
(g16
g10
NtRp1589
(dp1590
g19
g8
(g20
g10
NtRp1591
(dp1592
g23
S'H'
sg25
I1
sg26
F0.41699999999999998
sg27
S'A'
sg28
S'H'
sg29
g154
sg31
S'H'
sg33
F1.0079400000000001
sg34
S'H'
sbsg36
g37
(g38
(I0
tS'b'
tRp1593
(I1
(I3
tg41
I00
S'\xf4@\xbb#2=\xc3\xbfh\x91Zb\x0cP\xf2?g\xe7\x19N\x1f\xeb\xb0?'
tbsg42
(lp1594
sbassI57
(dp1595
g6
(lp1596
g8
(g16
g10
NtRp1597
(dp1598
g19
g8
(g20
g10
NtRp1599
(dp1600
g23
S'S'
sg25
I1
sg26
F0.10279620598469805
sg27
S'A'
sg28
S'S'
sg29
g179
sg31
g180
sg33
F32.064999999999998
sg34
g181
sbsg36
g37
(g38
(I0
tS'b'
tRp1601
(I1
(I3
tg41
I00
S'\r\xa82\x96L\xcc\x11@\xe0\xbc\xf6~\\\x00\xe5\xbf\x08\x1e\x8c\xd1\xaf\xbf\xc5?'
tbsg42
(lp1602
sbassI58
(dp1603
g6
(lp1604
g8
(g16
g10
NtRp1605
(dp1606
g19
g8
(g20
g10
NtRp1607
(dp1608
g23
g1207
sg25
I1
sg26
F-0.14266891092101905
sg27
S'A'
sg28
S'O'
sg29
g190
sg31
g191
sg33
F15.9994
sg34
g192
sbsg36
g37
(g38
(I0
tS'b'
tRp1609
(I1
(I3
tg41
I00
S'\x0f\xa82\x96L\xcc\x11@@\x86\x12\x02G\xff\xd5?\x18\x1e\x8c\xd1\xaf\xbf\xc5?'
tbsg42
(lp1610
sbassI59
(dp1611
g6
(lp1612
g8
(g16
g10
NtRp1613
(dp1614
g19
g8
(g20
g10
NtRp1615
(dp1616
g23
g1207
sg25
I1
sg26
F-0.14266891092101905
sg27
S'A'
sg28
S'O'
sg29
g201
sg31
g202
sg33
F15.9994
sg34
g203
sbsg36
g37
(g38
(I0
tS'b'
tRp1617
(I1
(I3
tg41
I00
S'\x11\xa82\x96L\xcc\x11@X^{?.\x80\xfa\xbf\xc4\x1d\x8c\xd1\xaf\xbf\xc5?'
tbsg42
(lp1618
sbassI60
(dp1619
g6
(lp1620
g8
(g16
g10
NtRp1621
(dp1622
g19
g8
(g20
g10
NtRp1623
(dp1624
g23
g1224
sg25
I1
sg26
F-0.25024668104089182
sg27
S'A'
sg28
S'O'
sg29
g213
sg31
g214
sg33
F15.9994
sg34
g215
sbsg36
g37
(g38
(I0
tS'b'
tRp1625
(I1
(I3
tg41
I00
S'\x13\xa82\x96L\xcc\x15@\xa0\xbc\xf6~\\\x00\xe5\xbf\x00\x1e\x8c\xd1\xaf\xbf\xc5?'
tbsg42
(lp1626
sbassI69
(dp1627
g6
(lp1628
g8
(g16
g10
NtRp1629
(dp1630
g19
g8
(g20
g10
NtRp1631
(dp1632
g23
S'H'
sg25
I1
sg26
F0.41699999999999998
sg27
S'A'
sg28
S'H'
sg29
g1245
sg31
S'H'
sg33
F1.0079400000000001
sg34
S'H'
sbsg36
g37
(g38
(I0
tS'b'
tRp1633
(I1
(I3
tg1247
I00
S'\xdc(\x19\xf8V\xde\xd2?@\xd2-\x84Z`\xc9?\xd2R\xd6N\x81w\xf2?'
tbsg42
(lp1634
sbasssg244
(dp1635
sg246
I00
sg247
(lp1636
(lp1637
I1
aI0
aI0
aI0
aa(lp1638
I0
aI1
aI0
aI0
aa(lp1639
I0
aI0
aI1
aI0
aa(lp1640
I0
aI0
aI0
aI1
aasg253
(dp1641
sg31
S'PSSe'
p1642
sg256
(dp1643
I68
(dp1644
I60
(dp1645
ssI3
(dp1646
I8
(dp1647
sI57
(dp1648
sI4
(dp1649
ssI4
(dp1650
I3
g1649
sI5
(dp1651
sI15
(dp1652
ssI5
(dp1653
I16
(dp1654
sI4
g1651
sI6
(dp1655
ssI6
(dp1656
I7
(dp1657
sI5
g1655
sI21
(dp1658
ssI7
(dp1659
I8
(dp1660
sI18
(dp1661
sI6
g1657
ssI8
(dp1662
I19
(dp1663
sI3
g1647
sI7
g1660
ssI71
(dp1664
I21
(dp1665
ssI70
(dp1666
I22
(dp1667
ssI15
(dp1668
I4
g1652
ssI16
(dp1669
I5
g1654
ssI18
(dp1670
I7
g1661
ssI19
(dp1671
I8
g1663
ssI21
(dp1672
I22
(dp1673
sI6
g1658
sI71
g1665
ssI22
(dp1674
I24
(dp1675
sI21
g1673
sI70
g1667
sI69
(dp1676
ssI24
(dp1677
I22
g1675
ssI57
(dp1678
I59
(dp1679
sI58
(dp1680
sI3
g1648
sI60
(dp1681
ssI58
(dp1682
I57
g1680
ssI59
(dp1683
I57
g1679
ssI60
(dp1684
I57
g1681
sI68
g1645
ssI69
(dp1685
I22
g1676
sssg298
g8
(g299
g10
NtRp1686
(dp1687
g302
(dp1688
S'C'
(lp1689
F-0.14940000000000001
aF2
aF0
asS'H'
(lp1690
F-0.029999999999999999
aF1.3582000000000001
aF0
asg1142
(lp1691
F-0.014999999999999999
aF1.4590000000000001
aF0.063100000000000003
asg1133
(lp1692
F-0.014999999999999999
aF1.4590000000000001
aF0.1069
asS'S'
(lp1693
F-0.34399999999999997
aF2.0150000000000001
aF1.1627959999999999
asg1081
(lp1694
F-0.085999999999999993
aF1.9079999999999999
aF-0.14380000000000001
asg1207
(lp1695
F-0.095699999999999993
aF1.7022999999999999
aF-0.41010000000000002
asg1224
(lp1696
F-0.095699999999999993
aF1.7022999999999999
aF-0.31309999999999999
asg1233
(lp1697
F-0.021999999999999999
aF1.3200000000000001
aF0.22750400000000001
asg1090
(lp1698
F-0.085999999999999993
aF1.9079999999999999
aF-0.090499999999999997
asg1099
(lp1699
F-0.085999999999999993
aF1.9079999999999999
aF-0.1133
asg1108
(lp1700
F-0.085999999999999993
aF1.9079999999999999
aF-0.045600000000000002
assg316
(dp1701
sg318
(dp1702
sg320
Nsg321
(dp1703
g1336
(lp1704
F350
aF1.48
asg1338
(lp1705
F350
aF1.74
asg1346
(lp1706
F0
aF0
asg1342
(lp1707
F0
aF0
asg1344
(lp1708
F309
aF1.111
asg1340
(lp1709
F317
aF1.51
asg1348
(lp1710
F469
aF1.3999999999999999
asg1350
(lp1711
F469
aF1.3999999999999999
asg1352
(lp1712
F566
aF0.95999999999999996
asg1354
(lp1713
F367
aF1.0800000000000001
asg1362
(lp1714
F469
aF1.3999999999999999
asg1358
(lp1715
F310
aF1.526
asg1360
(lp1716
F367
aF1.0800000000000001
asg1356
(lp1717
F350
aF1.48
assg354
(dp1718
(S'H'
S'C'
S'H'
tp1719
(lp1720
F0
aF0
asg1367
(lp1721
F70
aF120
asg1369
(lp1722
F0
aF0
asg1405
(lp1723
F63
aF120
asg1373
(lp1724
F70
aF120
asg1375
(lp1725
F35
aF120
asg1377
(lp1726
F175
aF115.5
asg1379
(lp1727
F63
aF120
asg1381
(lp1728
F35
aF120
asg1383
(lp1729
F35
aF120
asg1385
(lp1730
F63
aF120.47
asg1387
(lp1731
F0
aF0
asg1389
(lp1732
F63
aF120
asg1391
(lp1733
F0
aF0
asg1393
(lp1734
F60
aF109.47
asg1395
(lp1735
F70
aF120
asg1397
(lp1736
F70
aF120
asg1399
(lp1737
F0
aF0
asg1401
(lp1738
F175
aF115.5
asg1403
(lp1739
F34.5
aF110.09999999999999
asg1371
(lp1740
F34.5
aF110.09999999999999
asg1407
(lp1741
F35
aF120
assg404
(dp1742
S'C'
F0
sg305
F0
sS'H'
F0
sg406
F0
sg407
F0
sg212
F0
sS'S'
F0
sS'O'
F0
sg408
F0
sg409
F0
sg410
F0
sg411
F0
sg412
F0
sg413
F0
sg414
F0
sg415
F0
ssg416
g417
sg418
(dp1743
g1411
(lp1744
F0
aI0
aF0
asg1413
(lp1745
F0.20000000000000001
aF3
aI0
asg1415
(lp1746
F0.20000000000000001
aF3
aI0
asg1417
(lp1747
F0.20000000000000001
aF3
aF0
asg1419
(lp1748
F0
aI0
aF0
asg1421
(lp1749
F0.20000000000000001
aF3
aF0
asg1423
(lp1750
F0
aI0
aF0
asg1425
(lp1751
F0
aI0
aF0
asg1427
(lp1752
F0.20000000000000001
aF3
aF0
asg1429
(lp1753
F2.3100000000000001
aF3
aF180
asg1431
(lp1754
F0
aI0
aF0
asg1433
(lp1755
F0.20000000000000001
aF3
aF0
asg1435
(lp1756
F0.20000000000000001
aF3
aF0
asg1437
(lp1757
F0
aI0
aF0
asg1439
(lp1758
F0
aI0
aF0
asg1441
(lp1759
F0.20000000000000001
aF3
aF0
asg1443
(lp1760
F0.20000000000000001
aF3
aF0
asg1445
(lp1761
F0
aI0
aF0
asg1447
(lp1762
F0.20000000000000001
aF3
aF0
asg1449
(lp1763
F0
aI0
aF0
asg1457
(lp1764
F0
aI0
aF0
asg1453
(lp1765
F2.3100000000000001
aF3
aF180
asg1455
(lp1766
F2.3100000000000001
aF3
aF180
asg1451
(lp1767
F0
aI0
aF0
asg1459
(lp1768
F2.3100000000000001
aF3
aF180
assbsg470
g1643
sbassS'PSSs_1'
p1769
(dp1770
g6
(lp1771
g8
(g9
g10
NtRp1772
(dp1773
g2
(dp1774
I3
(dp1775
g6
(lp1776
g8
(g16
g10
NtRp1777
(dp1778
g19
g8
(g20
g10
NtRp1779
(dp1780
g23
g1081
sg25
I1
sg26
F-0.023724351092772298
sg27
S'A'
sg28
S'C'
sg29
g30
sg31
g32
sg33
F12.0107
sg34
g35
sbsg36
g37
(g38
(I0
tS'b'
tRp1781
(I1
(I3
tg41
I00
S":/\xfb i'\x0c@\x00|7=b\xf5\xe3\xbf\xa8)\xf0\x8d^\xd2\xc9?"
tbsg42
(lp1782
sbassI4
(dp1783
g6
(lp1784
g8
(g16
g10
NtRp1785
(dp1786
g19
g8
(g20
g10
NtRp1787
(dp1788
g23
g1090
sg25
I1
sg26
F-0.054553844020285638
sg27
S'A'
sg28
S'C'
sg29
g51
sg31
g52
sg33
F12.0107
sg34
g53
sbsg36
g37
(g38
(I0
tS'b'
tRp1789
(I1
(I3
tg41
I00
S":/\xfb i'\x08@H\x1e\x81\xef\xd3\xd5\xf7\xbf\xc0)\xf0\x8d^\xd2\xc9?"
tbsg42
(lp1790
sbassI5
(dp1791
g6
(lp1792
g8
(g16
g10
NtRp1793
(dp1794
g19
g8
(g20
g10
NtRp1795
(dp1796
g23
g1099
sg25
I1
sg26
F-0.061201460917836327
sg27
S'A'
sg28
S'C'
sg29
g63
sg31
g64
sg33
F12.0107
sg34
g65
sbsg36
g37
(g38
(I0
tS'b'
tRp1797
(I1
(I3
tg41
I00
S"@/\xfb i'\x00@X\x1e\x81\xef\xd3\xd5\xf7\xbf\x94)\xf0\x8d^\xd2\xc9?"
tbsg42
(lp1798
sbassI6
(dp1799
g6
(lp1800
g8
(g16
g10
NtRp1801
(dp1802
g19
g8
(g20
g10
NtRp1803
(dp1804
g23
g1108
sg25
I1
sg26
F-0.061723031912765083
sg27
S'A'
sg28
S'C'
sg29
g75
sg31
g76
sg33
F12.0107
sg34
g77
sbsg36
g37
(g38
(I0
tS'b'
tRp1805
(I1
(I3
tg41
I00
S'\x81^\xf6A\xd2N\xf8?\x00|7=b\xf5\xe3\xbfp)\xf0\x8d^\xd2\xc9?'
tbsg42
(lp1806
sbassI7
(dp1807
g6
(lp1808
g8
(g16
g10
NtRp1809
(dp1810
g19
g8
(g20
g10
NtRp1811
(dp1812
g23
g1099
sg25
I1
sg26
F-0.061201460917836327
sg27
S'A'
sg28
S'C'
sg29
g86
sg31
g87
sg33
F12.0107
sg34
g88
sbsg36
g37
(g38
(I0
tS'b'
tRp1813
(I1
(I3
tg41
I00
S"@/\xfb i'\x00@\x00u\xaan\xd4\x06\xcf?x)\xf0\x8d^\xd2\xc9?"
tbsg42
(lp1814
sbassI8
(dp1815
g6
(lp1816
g8
(g16
g10
NtRp1817
(dp1818
g19
g8
(g20
g10
NtRp1819
(dp1820
g23
g1090
sg25
I1
sg26
F-0.054553844020285638
sg27
S'A'
sg28
S'C'
sg29
g97
sg31
g98
sg33
F12.0107
sg34
g99
sbsg36
g37
(g38
(I0
tS'b'
tRp1821
(I1
(I3
tg41
I00
S":/\xfb i'\x08@\x00u\xaan\xd4\x06\xcf?\x88)\xf0\x8d^\xd2\xc9?"
tbsg42
(lp1822
sbassI15
(dp1823
g6
(lp1824
g8
(g16
g10
NtRp1825
(dp1826
g19
g8
(g20
g10
NtRp1827
(dp1828
g23
g1133
sg25
I1
sg26
F0.062344200605142688
sg27
S'A'
sg28
S'H'
sg29
g109
sg31
g110
sg33
F1.0079400000000001
sg34
g111
sbsg36
g37
(g38
(I0
tS'b'
tRp1829
(I1
(I3
tg41
I00
S'\xbaC\xa9hJ\xa2\n@\x9cV\xea1|6\x00\xc0\x94)\xf0\x8d^\xd2\xc9?'
tbsg42
(lp1830
sbassI16
(dp1831
g6
(lp1832
g8
(g16
g10
NtRp1833
(dp1834
g19
g8
(g20
g10
NtRp1835
(dp1836
g23
g1142
sg25
I1
sg26
F0.061775861220190055
sg27
S'A'
sg28
S'H'
sg29
g121
sg31
g122
sg33
F1.0079400000000001
sg34
g123
sbsg36
g37
(g38
(I0
tS'b'
tRp1837
(I1
(I3
tg41
I00
S'\x815\x9a\xb2\x0fY\xfb?\x9cV\xea1|6\x00\xc0\x98)\xf0\x8d^\xd2\xc9?'
tbsg42
(lp1838
sbassI18
(dp1839
g6
(lp1840
g8
(g16
g10
NtRp1841
(dp1842
g19
g8
(g20
g10
NtRp1843
(dp1844
g23
g1142
sg25
I1
sg26
F0.061775861220190055
sg27
S'A'
sg28
S'H'
sg29
g132
sg31
g133
sg33
F1.0079400000000001
sg34
g134
sbsg36
g37
(g38
(I0
tS'b'
tRp1845
(I1
(I3
tg41
I00
S'\x815\x9a\xb2\x0fY\xfb?\x00\xbbQ\x04\xfe\xef\xe8?\x88)\xf0\x8d^\xd2\xc9?'
tbsg42
(lp1846
sbassI19
(dp1847
g6
(lp1848
g8
(g16
g10
NtRp1849
(dp1850
g19
g8
(g20
g10
NtRp1851
(dp1852
g23
g1133
sg25
I1
sg26
F0.062344200605142688
sg27
S'A'
sg28
S'H'
sg29
g143
sg31
g144
sg33
F1.0079400000000001
sg34
g145
sbsg36
g37
(g38
(I0
tS'b'
tRp1853
(I1
(I3
tg41
I00
S'\xb6C\xa9hJ\xa2\n@ \xbbQ\x04\xfe\xef\xe8?\x9c)\xf0\x8d^\xd2\xc9?'
tbsg42
(lp1854
sbassI21
(dp1855
g6
(lp1856
g8
(g16
g10
NtRp1857
(dp1858
g19
g8
(g20
g10
NtRp1859
(dp1860
g23
S'C'
sg25
I1
sg26
F0.14715600000000001
sg27
S'A'
sg28
S'C'
sg29
g154
sg31
S'C'
sg33
F12.0107
sg34
S'C'
sbsg36
g37
(g38
(I0
tS'b'
tRp1861
(I1
(I3
tg41
I00
S'\xc4\xd6{}1\xd0\xe4?\xc0\xcb\xab\xec\r\t\xe8\xbf\xa8\xaf\xbe\xeb\x92r\xcf?'
tbsg42
(lp1862
sbassI22
(dp1863
g6
(lp1864
g8
(g16
g10
NtRp1865
(dp1866
g19
g8
(g20
g10
NtRp1867
(dp1868
g23
S'C'
sg25
I1
sg26
F0.14715600000000001
sg27
S'A'
sg28
S'C'
sg29
g154
sg31
S'C'
sg33
F12.0107
sg34
S'C'
sbsg36
g37
(g38
(I0
tS'b'
tRp1869
(I1
(I3
tg41
I00
S'\x07\x14^a\xc9\x06\xd0?\x00\x82\xf5~\x15\xa2\xc7?-\xdbW\x1b3\xe6\xb5?'
tbsg42
(lp1870
sbassI57
(dp1871
g6
(lp1872
g8
(g16
g10
NtRp1873
(dp1874
g19
g8
(g20
g10
NtRp1875
(dp1876
g23
S'S'
sg25
I1
sg26
F0.10279620598469805
sg27
S'A'
sg28
S'S'
sg29
g179
sg31
g180
sg33
F32.064999999999998
sg34
g181
sbsg36
g37
(g38
(I0
tS'b'
tRp1877
(I1
(I3
tg41
I00
S'\xed\x05)]\xbap\x11@\x80\xe1Y\xe4\x87:\xe5\xbfP\x11\xd3S\xb2\xf8\xcc?'
tbsg42
(lp1878
sbassI58
(dp1879
g6
(lp1880
g8
(g16
g10
NtRp1881
(dp1882
g19
g8
(g20
g10
NtRp1883
(dp1884
g23
g1207
sg25
I1
sg26
F-0.14266891092101905
sg27
S'A'
sg28
S'O'
sg29
g190
sg31
g191
sg33
F15.9994
sg34
g192
sbsg36
g37
(g38
(I0
tS'b'
tRp1885
(I1
(I3
tg41
I00
S'\xef\x05)]\xbap\x11@\x00=L7\xf0\x8a\xd5?`\x11\xd3S\xb2\xf8\xcc?'
tbsg42
(lp1886
sbassI59
(dp1887
g6
(lp1888
g8
(g16
g10
NtRp1889
(dp1890
g19
g8
(g20
g10
NtRp1891
(dp1892
g23
g1207
sg25
I1
sg26
F-0.14266891092101905
sg27
S'A'
sg28
S'O'
sg29
g201
sg31
g202
sg33
F15.9994
sg34
g203
sbsg36
g37
(g38
(I0
tS'b'
tRp1893
(I1
(I3
tg41
I00
S'\xf1\x05)]\xbap\x11@\xa8\xf0,\xf2C\x9d\xfa\xbf\x0c\x11\xd3S\xb2\xf8\xcc?'
tbsg42
(lp1894
sbassI60
(dp1895
g6
(lp1896
g8
(g16
g10
NtRp1897
(dp1898
g19
g8
(g20
g10
NtRp1899
(dp1900
g23
g1224
sg25
I1
sg26
F-0.25024668104089182
sg27
S'A'
sg28
S'O'
sg29
g213
sg31
g214
sg33
F15.9994
sg34
g215
sbsg36
g37
(g38
(I0
tS'b'
tRp1901
(I1
(I3
tg41
I00
S'\xf3\x05)]\xbap\x15@@\xe1Y\xe4\x87:\xe5\xbfH\x11\xd3S\xb2\xf8\xcc?'
tbsg42
(lp1902
sbassI68
(dp1903
g6
(lp1904
g8
(g16
g10
NtRp1905
(dp1906
g19
g8
(g20
g10
NtRp1907
(dp1908
g23
g1233
sg25
I1
sg26
F0.24485623083539299
sg27
S'A'
sg28
S'H'
sg29
g1234
sg31
g1235
sg33
F1.0079400000000001
sg34
g1236
sbsg36
g37
(g38
(I0
tS'b'
tRp1909
(I1
(I3
tg41
I00
S'1\x10\x00\x01+\xae\x16@\x00\x0e\xcb\xee\xfb0\xc0\xbf\x80\x11\xd3S\xb2\xf8\xcc?'
tbsg42
(lp1910
sbassI71
(dp1911
g6
(lp1912
g8
(g16
g10
NtRp1913
(dp1914
g19
g8
(g20
g10
NtRp1915
(dp1916
g23
S'H'
sg25
I1
sg26
F0.41699999999999998
sg27
S'A'
sg28
S'H'
sg29
S'ELT'
p1917
sg31
S'H'
sg33
F1.0079400000000001
sg34
S'H'
sbsg36
g37
(g38
(I0
tS'b'
tRp1918
(I1
(I3
tg40
(S'f8'
I0
I1
tRp1919
(I3
S'<'
NNNI-1
I-1
I0
tbI00
S'\xa0%\x19\xd9\x90\xb6\xf0?\x80\xfe5(@?\xe5\xbf+*E_f\x93\xf9?'
tbsg42
(lp1920
sbassI72
(dp1921
g6
(lp1922
g8
(g16
g10
NtRp1923
(dp1924
g19
g8
(g20
g10
NtRp1925
(dp1926
g23
S'H'
sg25
I1
sg26
F0.41699999999999998
sg27
S'A'
sg28
S'H'
sg29
S'ELT'
p1927
sg31
S'H'
sg33
F1.0079400000000001
sg34
S'H'
sbsg36
g37
(g38
(I0
tS'b'
tRp1928
(I1
(I3
tg40
(S'f8'
I0
I1
tRp1929
(I3
S'<'
NNNI-1
I-1
I0
tbI00
S'\x81i\x9b\x9b\xbc%\xdd\xbf\x00\xfa\xd7\xa0\x00\xfd\xc4\xbf\x91\x90\xab\xc5\xcc\xf9\xf7?'
tbsg42
(lp1930
sbassI73
(dp1931
g6
(lp1932
g8
(g16
g10
NtRp1933
(dp1934
g19
g8
(g20
g10
NtRp1935
(dp1936
g23
S'H'
sg25
I1
sg26
F0.41699999999999998
sg27
S'A'
sg28
S'H'
sg29
S'ELT'
p1937
sg31
S'H'
sg33
F1.0079400000000001
sg34
S'H'
sbsg36
g37
(g38
(I0
tS'b'
tRp1938
(I1
(I3
tg40
(S'f8'
I0
I1
tRp1939
(I3
S'<'
NNNI-1
I-1
I0
tbI00
S'\xa0%\x19\xd9\x90\xb6\xf0?@c\xd2\xb6\xe6\xe4\xd0\xbf;<!\x07\x00\xd3\xf4\xbf'
tbsg42
(lp1940
sbassI75
(dp1941
g6
(lp1942
g8
(g16
g10
NtRp1943
(dp1944
g19
g8
(g20
g10
NtRp1945
(dp1946
g23
S'H'
sg25
I1
sg26
F0.41699999999999998
sg27
S'A'
sg28
S'H'
sg29
S'ELT'
p1947
sg31
S'H'
sg33
F1.0079400000000001
sg34
S'H'
sbsg36
g37
(g38
(I0
tS'b'
tRp1948
(I1
(I3
tg40
(S'f8'
I0
I1
tRp1949
(I3
S'<'
NNNI-1
I-1
I0
tbI00
S'\x80\xdd\xb7\x03\xc6`n?@\xae]\xca\xdbN\xef\xbf,>.7*\xe4\xee?'
tbsg42
(lp1950
sbassI76
(dp1951
g6
(lp1952
g8
(g16
g10
NtRp1953
(dp1954
g19
g8
(g20
g10
NtRp1955
(dp1956
g23
S'H'
sg25
I1
sg26
F0.41699999999999998
sg27
S'A'
sg28
S'H'
sg29
g1947
sg31
S'H'
sg33
F1.0079400000000001
sg34
S'H'
sbsg36
g37
(g38
(I0
tS'b'
tRp1957
(I1
(I3
tg1949
I00
S'\x80\xdd\xb7\x03\xc6`n?@\xae]\xca\xdbN\xef\xbf\xa1\x8e\x9e\x95\xa2\xe8\xed\xbf'
tbsg42
(lp1958
sbasssg244
(dp1959
sg246
I00
sg247
(lp1960
(lp1961
I1
aI0
aI0
aI0
aa(lp1962
I0
aI1
aI0
aI0
aa(lp1963
I0
aI0
aI1
aI0
aa(lp1964
I0
aI0
aI0
aI1
aasg253
(dp1965
sg31
S'PSSs'
p1966
sg256
(dp1967
I3
(dp1968
I8
(dp1969
sI57
(dp1970
sI4
(dp1971
ssI4
(dp1972
I3
g1971
sI5
(dp1973
sI15
(dp1974
ssI5
(dp1975
I16
(dp1976
sI4
g1973
sI6
(dp1977
ssI6
(dp1978
I7
(dp1979
sI5
g1977
sI21
(dp1980
ssI7
(dp1981
I8
(dp1982
sI18
(dp1983
sI6
g1979
ssI8
(dp1984
I19
(dp1985
sI3
g1969
sI7
g1982
ssI15
(dp1986
I4
g1974
ssI16
(dp1987
I5
g1976
ssI18
(dp1988
I7
g1983
ssI19
(dp1989
I8
g1985
ssI21
(dp1990
I75
(dp1991
sI76
(dp1992
sI22
(dp1993
sI6
g1980
sI71
(dp1994
ssI22
(dp1995
I72
(dp1996
sI73
(dp1997
sI21
g1993
ssI57
(dp1998
I59
(dp1999
sI58
(dp2000
sI3
g1970
sI60
(dp2001
ssI58
(dp2002
I57
g2000
ssI59
(dp2003
I57
g1999
ssI60
(dp2004
I57
g2001
sI68
(dp2005
ssI68
(dp2006
I60
g2005
ssI71
(dp2007
I21
g1994
ssI72
(dp2008
I22
g1996
ssI73
(dp2009
I22
g1997
ssI75
(dp2010
I21
g1991
ssI76
(dp2011
I21
g1992
sssg298
g8
(g299
g10
NtRp2012
(dp2013
g302
(dp2014
S'C'
(lp2015
F-0.14940000000000001
aF2
aF0
asS'H'
(lp2016
F-0.029999999999999999
aF1.3582000000000001
aF0
asg1142
(lp2017
F-0.014999999999999999
aF1.4590000000000001
aF0.063100000000000003
asg1133
(lp2018
F-0.014999999999999999
aF1.4590000000000001
aF0.1069
asS'S'
(lp2019
F-0.34399999999999997
aF2.0150000000000001
aF1.1627959999999999
asg1081
(lp2020
F-0.085999999999999993
aF1.9079999999999999
aF-0.14380000000000001
asg1108
(lp2021
F-0.085999999999999993
aF1.9079999999999999
aF-0.045600000000000002
asg1224
(lp2022
F-0.095699999999999993
aF1.7022999999999999
aF-0.31309999999999999
asg1233
(lp2023
F-0.021999999999999999
aF1.3200000000000001
aF0.22750400000000001
asg1090
(lp2024
F-0.085999999999999993
aF1.9079999999999999
aF-0.090499999999999997
asg1099
(lp2025
F-0.085999999999999993
aF1.9079999999999999
aF-0.1133
asg1207
(lp2026
F-0.095699999999999993
aF1.7022999999999999
aF-0.41010000000000002
assg316
(dp2027
sg318
(dp2028
sg320
Nsg321
(dp2029
g1336
(lp2030
F350
aF1.48
asg1338
(lp2031
F350
aF1.74
asg1346
(lp2032
F0
aF0
asg1342
(lp2033
F0
aF0
asg1344
(lp2034
F309
aF1.111
asg1340
(lp2035
F317
aF1.51
asg1348
(lp2036
F469
aF1.3999999999999999
asg1350
(lp2037
F469
aF1.3999999999999999
asg1352
(lp2038
F566
aF0.95999999999999996
asg1354
(lp2039
F367
aF1.0800000000000001
asg1362
(lp2040
F469
aF1.3999999999999999
asg1358
(lp2041
F310
aF1.526
asg1360
(lp2042
F367
aF1.0800000000000001
asg1356
(lp2043
F350
aF1.48
assg354
(dp2044
(S'H'
S'C'
S'H'
tp2045
(lp2046
F0
aF0
asg1367
(lp2047
F70
aF120
asg1369
(lp2048
F0
aF0
asg1371
(lp2049
F34.5
aF110.09999999999999
asg1373
(lp2050
F70
aF120
asg1375
(lp2051
F35
aF120
asg1377
(lp2052
F175
aF115.5
asg1379
(lp2053
F63
aF120
asg1381
(lp2054
F35
aF120
asg1383
(lp2055
F35
aF120
asg1385
(lp2056
F63
aF120.47
asg1387
(lp2057
F0
aF0
asg1389
(lp2058
F63
aF120
asg1391
(lp2059
F0
aF0
asg1393
(lp2060
F60
aF109.47
asg1395
(lp2061
F70
aF120
asg1397
(lp2062
F70
aF120
asg1399
(lp2063
F0
aF0
asg1401
(lp2064
F175
aF115.5
asg1403
(lp2065
F34.5
aF110.09999999999999
asg1405
(lp2066
F63
aF120
asg1407
(lp2067
F35
aF120
assg404
(dp2068
S'C'
F0
sg305
F0
sS'H'
F0
sg406
F0
sg407
F0
sg212
F0
sS'S'
F0
sS'O'
F0
sg408
F0
sg409
F0
sg410
F0
sg411
F0
sg412
F0
sg413
F0
sg414
F0
sg415
F0
ssg416
g417
sg418
(dp2069
g1411
(lp2070
F0
aI0
aF0
asg1413
(lp2071
F0.20000000000000001
aF3
aI0
asg1415
(lp2072
F0.20000000000000001
aF3
aI0
asg1417
(lp2073
F0.20000000000000001
aF3
aF0
asg1419
(lp2074
F0
aI0
aF0
asg1421
(lp2075
F0.20000000000000001
aF3
aF0
asg1423
(lp2076
F0
aI0
aF0
asg1425
(lp2077
F0
aI0
aF0
asg1427
(lp2078
F0.20000000000000001
aF3
aF0
asg1429
(lp2079
F2.3100000000000001
aF3
aF180
asg1431
(lp2080
F0
aI0
aF0
asg1433
(lp2081
F0.20000000000000001
aF3
aF0
asg1435
(lp2082
F0.20000000000000001
aF3
aF0
asg1437
(lp2083
F0
aI0
aF0
asg1439
(lp2084
F0
aI0
aF0
asg1441
(lp2085
F0.20000000000000001
aF3
aF0
asg1443
(lp2086
F0.20000000000000001
aF3
aF0
asg1445
(lp2087
F0
aI0
aF0
asg1447
(lp2088
F0.20000000000000001
aF3
aF0
asg1449
(lp2089
F0
aI0
aF0
asg1457
(lp2090
F0
aI0
aF0
asg1453
(lp2091
F2.3100000000000001
aF3
aF180
asg1455
(lp2092
F2.3100000000000001
aF3
aF180
asg1451
(lp2093
F0
aI0
aF0
asg1459
(lp2094
F2.3100000000000001
aF3
aF180
assbsg470
g1967
sbassS'PSSn1_2'
p2095
(dp2096
g6
(lp2097
g8
(g9
g10
NtRp2098
(dp2099
g2
(dp2100
I3
(dp2101
g6
(lp2102
g8
(g16
g10
NtRp2103
(dp2104
g19
g8
(g20
g10
NtRp2105
(dp2106
g23
g24
sg25
I1
sg26
F-0.023724351092772298
sg27
S'A'
sg28
S'C'
sg29
g30
sg31
g32
sg33
F12.0107
sg34
g35
sbsg36
g37
(g38
(I0
tS'b'
tRp2107
(I1
(I3
tg41
I00
S'\xd5\x1d\xfe\xc0\xd9\xb7\x0b@X\xfa\xa1s\xf0\xc4\xe7\xbf\x1f8\xec\x8c\xe2\x14\xb3?'
tbsg42
(lp2108
sbassI4
(dp2109
g6
(lp2110
g8
(g16
g10
NtRp2111
(dp2112
g19
g8
(g20
g10
NtRp2113
(dp2114
g23
g50
sg25
I1
sg26
F-0.054553844020285638
sg27
S'A'
sg28
S'C'
sg29
g51
sg31
g52
sg33
F12.0107
sg34
g53
sbsg36
g37
(g38
(I0
tS'b'
tRp2115
(I1
(I3
tg41
I00
S'\xd5\x1d\xfe\xc0\xd9\xb7\x07@p]\xb6\n\x9b\xbd\xf9\xbfO8\xec\x8c\xe2\x14\xb3?'
tbsg42
(lp2116
sbassI5
(dp2117
g6
(lp2118
g8
(g16
g10
NtRp2119
(dp2120
g19
g8
(g20
g10
NtRp2121
(dp2122
g23
g62
sg25
I1
sg26
F-0.061201460917836327
sg27
S'A'
sg28
S'C'
sg29
g63
sg31
g64
sg33
F12.0107
sg34
g65
sbsg36
g37
(g38
(I0
tS'b'
tRp2123
(I1
(I3
tg41
I00
S'\xbb;\xfc\x81\xb3o\xff?\x80]\xb6\n\x9b\xbd\xf9\xbf\xf77\xec\x8c\xe2\x14\xb3?'
tbsg42
(lp2124
sbassI6
(dp2125
g6
(lp2126
g8
(g16
g10
NtRp2127
(dp2128
g19
g8
(g20
g10
NtRp2129
(dp2130
g23
g74
sg25
I1
sg26
F-0.061723031912765083
sg27
S'A'
sg28
S'C'
sg29
g75
sg31
g76
sg33
F12.0107
sg34
g77
sbsg36
g37
(g38
(I0
tS'b'
tRp2131
(I1
(I3
tg41
I00
S'\xba;\xfc\x81\xb3o\xf7?X\xfa\xa1s\xf0\xc4\xe7\xbf\xaf7\xec\x8c\xe2\x14\xb3?'
tbsg42
(lp2132
sbassI7
(dp2133
g6
(lp2134
g8
(g16
g10
NtRp2135
(dp2136
g19
g8
(g20
g10
NtRp2137
(dp2138
g23
g62
sg25
I1
sg26
F-0.061201460917836327
sg27
S'A'
sg28
S'C'
sg29
g86
sg31
g87
sg33
F12.0107
sg34
g88
sbsg36
g37
(g38
(I0
tS'b'
tRp2139
(I1
(I3
tg41
I00
S'\xbb;\xfc\x81\xb3o\xff?@\xf7\x00*7\x91\xbf?\xbf7\xec\x8c\xe2\x14\xb3?'
tbsg42
(lp2140
sbassI8
(dp2141
g6
(lp2142
g8
(g16
g10
NtRp2143
(dp2144
g19
g8
(g20
g10
NtRp2145
(dp2146
g23
g50
sg25
I1
sg26
F-0.054553844020285638
sg27
S'A'
sg28
S'C'
sg29
g97
sg31
g98
sg33
F12.0107
sg34
g99
sbsg36
g37
(g38
(I0
tS'b'
tRp2147
(I1
(I3
tg41
I00
S'\xd5\x1d\xfe\xc0\xd9\xb7\x07@@\xf7\x00*7\x91\xbf?\xdf7\xec\x8c\xe2\x14\xb3?'
tbsg42
(lp2148
sbassI15
(dp2149
g6
(lp2150
g8
(g16
g10
NtRp2151
(dp2152
g19
g8
(g20
g10
NtRp2153
(dp2154
g23
g108
sg25
I1
sg26
F0.062344200605142688
sg27
S'A'
sg28
S'H'
sg29
g109
sg31
g110
sg33
F1.0079400000000001
sg34
g111
sbsg36
g37
(g38
(I0
tS'b'
tRp2155
(I1
(I3
tg41
I00
S'U2\xac\x08\xbb2\n@0\xf6\x84\xbf_*\x01\xc0\xf77\xec\x8c\xe2\x14\xb3?'
tbsg42
(lp2156
sbassI16
(dp2157
g6
(lp2158
g8
(g16
g10
NtRp2159
(dp2160
g19
g8
(g20
g10
NtRp2161
(dp2162
g23
g120
sg25
I1
sg26
F0.061775861220190055
sg27
S'A'
sg28
S'H'
sg29
g121
sg31
g122
sg33
F1.0079400000000001
sg34
g123
sbsg36
g37
(g38
(I0
tS'b'
tRp2163
(I1
(I3
tg41
I00
S'\xba\x12\xa0\xf2\xf0y\xfa?0\xf6\x84\xbf_*\x01\xc0\xff7\xec\x8c\xe2\x14\xb3?'
tbsg42
(lp2164
sbassI18
(dp2165
g6
(lp2166
g8
(g16
g10
NtRp2167
(dp2168
g19
g8
(g20
g10
NtRp2169
(dp2170
g23
g120
sg25
I1
sg26
F0.061775861220190055
sg27
S'A'
sg28
S'H'
sg29
g132
sg31
g133
sg33
F1.0079400000000001
sg34
g134
sbsg36
g37
(g38
(I0
tS'b'
tRp2171
(I1
(I3
tg41
I00
S'\xba\x12\xa0\xf2\xf0y\xfa?\xa8<\xe7\xcdo \xe5?\xdf7\xec\x8c\xe2\x14\xb3?'
tbsg42
(lp2172
sbassI19
(dp2173
g6
(lp2174
g8
(g16
g10
NtRp2175
(dp2176
g19
g8
(g20
g10
NtRp2177
(dp2178
g23
g108
sg25
I1
sg26
F0.062344200605142688
sg27
S'A'
sg28
S'H'
sg29
g143
sg31
g144
sg33
F1.0079400000000001
sg34
g145
sbsg36
g37
(g38
(I0
tS'b'
tRp2179
(I1
(I3
tg41
I00
S'Q2\xac\x08\xbb2\n@\xc8<\xe7\xcdo \xe5?\x078\xec\x8c\xe2\x14\xb3?'
tbsg42
(lp2180
sbassI21
(dp2181
g6
(lp2182
g8
(g16
g10
NtRp2183
(dp2184
g19
g8
(g20
g10
NtRp2185
(dp2186
g23
S'C'
sg25
I1
sg26
F0.14715600000000001
sg27
S'A'
sg28
S'C'
sg29
g154
sg31
S'C'
sg33
F12.0107
sg34
S'C'
sbsg36
g37
(g38
(I0
tS'b'
tRp2187
(I1
(I3
tg41
I00
S'3\x91\x87\xfd\xf3\x11\xe3?\x18J\x16#\x9c\xd8\xeb\xbf\x1fD\x89HKU\xbe?'
tbsg42
(lp2188
sbassI22
(dp2189
g6
(lp2190
g8
(g16
g10
NtRp2191
(dp2192
g19
g8
(g20
g10
NtRp2193
(dp2194
g23
S'C'
sg25
I1
sg26
F0.14715600000000001
sg27
S'A'
sg28
S'C'
sg29
g154
sg31
S'C'
sg33
F12.0107
sg34
S'C'
sbsg36
g37
(g38
(I0
tS'b'
tRp2195
(I1
(I3
tg41
I00
S'\xcd\x11\xeb\xc2\x9c\x14\xc9?@\x11\x97J\xb9\xc7\xb0?\x04\x808\xe7NS\xa5\xbf'
tbsg42
(lp2196
sbassI23
(dp2197
g6
(lp2198
g8
(g16
g10
NtRp2199
(dp2200
g19
g8
(g20
g10
NtRp2201
(dp2202
g23
S'H'
sg25
I1
sg26
F0.41699999999999998
sg27
S'A'
sg28
S'H'
sg29
g154
sg31
S'H'
sg33
F1.0079400000000001
sg34
S'H'
sbsg36
g37
(g38
(I0
tS'b'
tRp2203
(I1
(I3
tg41
I00
S'\xa2\xe7\x80\xe0Q&\xb2?h\x9ch-[\x1e\x00\xc0r\xf9\xdf>\xc5\x9b\xba\xbf'
tbsg42
(lp2204
sbassI24
(dp2205
g6
(lp2206
g8
(g16
g10
NtRp2207
(dp2208
g19
g8
(g20
g10
NtRp2209
(dp2210
g23
S'H'
sg25
I1
sg26
F0.41699999999999998
sg27
S'A'
sg28
S'H'
sg29
g154
sg31
S'H'
sg33
F1.0079400000000001
sg34
S'H'
sbsg36
g37
(g38
(I0
tS'b'
tRp2211
(I1
(I3
tg41
I00
S'\x9aM`\xa27\xd4\xd2\xbf\xf0\xbfs\x94/K\xf0?\x8c\xd3\xc4\xc4c+s\xbf'
tbsg42
(lp2212
sbassI57
(dp2213
g6
(lp2214
g8
(g16
g10
NtRp2215
(dp2216
g19
g8
(g20
g10
NtRp2217
(dp2218
g23
S'S'
sg25
I1
sg26
F0.10279620598469805
sg27
S'A'
sg28
S'S'
sg29
g179
sg31
g180
sg33
F32.064999999999998
sg34
g181
sbsg36
g37
(g38
(I0
tS'b'
tRp2219
(I1
(I3
tg41
I00
S';}*\xad\xf28\x11@\xc8_\xc4\x1a\x16\n\xe9\xbfo\x07\xb2\x18\x8aa\xb9?'
tbsg42
(lp2220
sbassI58
(dp2221
g6
(lp2222
g8
(g16
g10
NtRp2223
(dp2224
g19
g8
(g20
g10
NtRp2225
(dp2226
g23
S'O'
sg25
I1
sg26
F-0.14266891092101905
sg27
S'A'
sg28
S'O'
sg29
g190
sg31
g191
sg33
F15.9994
sg34
g192
sbsg36
g37
(g38
(I0
tS'b'
tRp2227
(I1
(I3
tg41
I00
S'=}*\xad\xf28\x11@\xe0\x80\xee\x94\xa7\xd7\xcb?\x8f\x07\xb2\x18\x8aa\xb9?'
tbsg42
(lp2228
sbassI59
(dp2229
g6
(lp2230
g8
(g16
g10
NtRp2231
(dp2232
g19
g8
(g20
g10
NtRp2233
(dp2234
g23
S'O'
sg25
I1
sg26
F-0.14266891092101905
sg27
S'A'
sg28
S'O'
sg29
g201
sg31
g202
sg33
F15.9994
sg34
g203
sbsg36
g37
(g38
(I0
tS'b'
tRp2235
(I1
(I3
tg41
I00
S'?}*\xad\xf28\x11@\xd0/b\r\x0b\x85\xfc\xbf\xe7\x06\xb2\x18\x8aa\xb9?'
tbsg42
(lp2236
sbassI60
(dp2237
g6
(lp2238
g8
(g16
g10
NtRp2239
(dp2240
g19
g8
(g20
g10
NtRp2241
(dp2242
g23
g212
sg25
I1
sg26
F-0.25024668104089182
sg27
S'A'
sg28
S'O'
sg29
g213
sg31
g214
sg33
F15.9994
sg34
g215
sbsg36
g37
(g38
(I0
tS'b'
tRp2243
(I1
(I3
tg41
I00
S'A}*\xad\xf28\x15@\x88_\xc4\x1a\x16\n\xe9\xbf_\x07\xb2\x18\x8aa\xb9?'
tbsg42
(lp2244
sbassI61
(dp2245
g6
(lp2246
g8
(g16
g10
NtRp2247
(dp2248
g19
g8
(g20
g10
NtRp2249
(dp2250
g23
S'H'
sg25
I1
sg26
F0.41699999999999998
sg27
S'A'
sg28
S'H'
sg29
g224
sg31
S'H'
sg33
F1.0079400000000001
sg34
S'H'
sbsg36
g37
(g38
(I0
tS'b'
tRp2251
(I1
(I3
tg226
I00
S'n\xf2\xe6\x7f\x9en\xd1\xbf\x00\x9b\x12\xb2"`\xad\xbft\xed\x1cQ\x7f\xe5\xf2?'
tbsg42
(lp2252
sbassI62
(dp2253
g6
(lp2254
g8
(g16
g10
NtRp2255
(dp2256
g19
g8
(g20
g10
NtRp2257
(dp2258
g23
S'H'
sg25
I1
sg26
F0.41699999999999998
sg27
S'A'
sg28
S'H'
sg29
g224
sg31
S'H'
sg33
F1.0079400000000001
sg34
S'H'
sbsg36
g37
(g38
(I0
tS'b'
tRp2259
(I1
(I3
tg226
I00
S'\x9bC\xb1\xb4P\x1a\xcd\xbf\x00\xa2%T\xe0\xfe\x96\xbfs8\x9c\xdc\x0cZ\xf4\xbf'
tbsg42
(lp2260
sbassI63
(dp2261
g6
(lp2262
g8
(g16
g10
NtRp2263
(dp2264
g19
g8
(g20
g10
NtRp2265
(dp2266
g23
S'H'
sg25
I1
sg26
F0.41699999999999998
sg27
S'A'
sg28
S'H'
sg29
g224
sg31
S'H'
sg33
F1.0079400000000001
sg34
S'H'
sbsg36
g37
(g38
(I0
tS'b'
tRp2267
(I1
(I3
tg226
I00
S'gfffff\xe6?\x00\x00\x00\x00\x00\x00\xf0\xbf\x9a\x99\x99\x99\x99\x99\xf1?'
tbsg42
(lp2268
sbasssg244
(dp2269
sg246
I00
sg247
(lp2270
(lp2271
I1
aI0
aI0
aI0
aa(lp2272
I0
aI1
aI0
aI0
aa(lp2273
I0
aI0
aI1
aI0
aa(lp2274
I0
aI0
aI0
aI1
aasg253
(dp2275
sg31
S'PSSn1'
p2276
sg256
(dp2277
I3
(dp2278
I8
(dp2279
sI57
(dp2280
sI4
(dp2281
ssI4
(dp2282
I3
g2281
sI5
(dp2283
sI15
(dp2284
ssI5
(dp2285
I16
(dp2286
sI4
g2283
sI6
(dp2287
ssI6
(dp2288
I7
(dp2289
sI21
(dp2290
sI5
g2287
sI63
(dp2291
ssI7
(dp2292
I8
(dp2293
sI18
(dp2294
sI6
g2289
ssI8
(dp2295
I19
(dp2296
sI3
g2279
sI7
g2293
ssI15
(dp2297
I4
g2284
ssI16
(dp2298
I5
g2286
ssI18
(dp2299
I7
g2294
ssI19
(dp2300
I8
g2296
ssI21
(dp2301
I22
(dp2302
sI6
g2290
sI23
(dp2303
ssI22
(dp2304
I24
(dp2305
sI21
g2302
sI62
(dp2306
sI61
(dp2307
ssI23
(dp2308
I21
g2303
ssI24
(dp2309
I22
g2305
ssI57
(dp2310
I59
(dp2311
sI58
(dp2312
sI3
g2280
sI60
(dp2313
ssI58
(dp2314
I57
g2312
ssI59
(dp2315
I57
g2311
ssI60
(dp2316
I57
g2313
ssI61
(dp2317
I22
g2307
ssI62
(dp2318
I22
g2306
ssI63
(dp2319
I6
g2291
sssg298
g8
(g299
g10
NtRp2320
(dp2321
g302
(dp2322
S'C'
(lp2323
F-0.032000000000000001
aF2
aF0
asg305
(lp2324
F-0.014999999999999999
aF1.4590000000000001
aF0.063100000000000003
asS'H'
(lp2325
F-0.029999999999999999
aF1.3582000000000001
aF0
asS'O'
(lp2326
F-0.095699999999999993
aF1.7022999999999999
aF-0.61299999999999999
asS'S'
(lp2327
F-0.34399999999999997
aF2.0150000000000001
aF1.1060000000000001
asg108
(lp2328
F-0.014999999999999999
aF1.4590000000000001
aF0.1069
asg50
(lp2329
F-0.1094
aF2.0579999999999998
aF-0.090499999999999997
asg62
(lp2330
F-0.1094
aF2.0579999999999998
aF-0.1133
asg74
(lp2331
F-0.085999999999999993
aF2
aF-0.055599999999999997
asg212
(lp2332
F-0.095699999999999993
aF1.7022999999999999
aF-0.61299999999999999
asg24
(lp2333
F-0.032000000000000001
aF1.9079999999999999
aF-0.14380000000000001
assg316
(dp2334
sg318
(dp2335
sg320
Nsg321
(dp2336
g323
(lp2337
F367
aF1.0800000000000001
asg325
(lp2338
F309
aF1.111
asg327
(lp2339
F350
aF1.74
asg329
(lp2340
F469
aF1.3999999999999999
asg331
(lp2341
F350
aF1.48
as(g74
S'H'
tp2342
(lp2343
F309
aF1.111
asg335
(lp2344
F0
aF0
asg338
(lp2345
F566
aF0.95999999999999996
asg340
(lp2346
F0
aF0
asg350
(lp2347
F317
aF1.51
asg344
(lp2348
F222.5
aF1.48
asg346
(lp2349
F367
aF1.0800000000000001
asg348
(lp2350
F350
aF1.48
asg342
(lp2351
F469
aF1.3999999999999999
asg352
(lp2352
F222.5
aF1.48
assg354
(dp2353
g356
(lp2354
F34.5
aF110.09999999999999
asg358
(lp2355
F63
aF120
as(S'H'
S'C'
S'H'
tp2356
(lp2357
F0
aF0
asg362
(lp2358
F70
aF120
asg364
(lp2359
F175
aF115.5
asg366
(lp2360
F70
aF120
asg368
(lp2361
F35
aF120
asg370
(lp2362
F53.350000000000001
aF111
asg372
(lp2363
F0
aF0
asg374
(lp2364
F53.350000000000001
aF111
asg376
(lp2365
F35
aF120
asg378
(lp2366
F70
aF120
asg380
(lp2367
F0
aF0
asg382
(lp2368
F70
aF120
asg384
(lp2369
F0
aF0
asg386
(lp2370
F35
aF120
as(g62
g74
S'H'
tp2371
(lp2372
F0
aF0
asg390
(lp2373
F35
aF120
asg392
(lp2374
F175
aF115.5
asg394
(lp2375
F60
aF109.47
asg396
(lp2376
F34.5
aF110.09999999999999
asg398
(lp2377
F0
aF0
asg400
(lp2378
F63
aF109.47
as(S'C'
g74
S'H'
tp2379
(lp2380
F0
aF0
assg404
(dp2381
S'C'
F0
sg305
F0
sS'H'
F0
sg406
F0
sg407
F0
sS'S'
F0
sg414
F0
sS'O'
F0
sg408
F0
sg409
F0
sg410
F0
sg411
F0
sg412
F0
sg413
F0
sg212
F0
sg415
F0
ssg416
g417
sg418
(dp2382
g420
(lp2383
F0
aI0
aF0
asg422
(lp2384
F0.20000000000000001
aF3
aF0
asg446
(lp2385
F0
aI0
aF0
asg426
(lp2386
F0.20000000000000001
aF3
aI0
asg428
(lp2387
F0
aI0
aF0
asg430
(lp2388
F0
aI0
aF0
asg432
(lp2389
F0
aI0
aF0
asg434
(lp2390
F0.20000000000000001
aF3
aF0
asg436
(lp2391
F2.3100000000000001
aF3
aF180
asg438
(lp2392
F0.20000000000000001
aF3
aF0
asg440
(lp2393
F0
aI0
aF0
asg442
(lp2394
F0.20000000000000001
aF3
aI0
asg444
(lp2395
F0
aI0
aF0
asg424
(lp2396
F0.20000000000000001
aF3
aF0
asg448
(lp2397
F0
aI0
aF0
asg450
(lp2398
F0
aI0
aF0
asg452
(lp2399
F0.20000000000000001
aF3
aF0
asg454
(lp2400
F0.20000000000000001
aF3
aF0
asg456
(lp2401
F0
aI0
aF0
asg458
(lp2402
F2.3100000000000001
aF3
aF180
asg460
(lp2403
F2.3100000000000001
aF3
aF180
asg462
(lp2404
F2.3100000000000001
aF3
aF180
asg464
(lp2405
F0
aI0
aF0
asg466
(lp2406
F0.20000000000000001
aF3
aF0
asg468
(lp2407
F0.20000000000000001
aF3
aF0
assbsg470
g2277
sbassS'PSS_2'
p2408
(dp2409
g6
(lp2410
g8
(g9
g10
NtRp2411
(dp2412
g2
(dp2413
I3
(dp2414
g6
(lp2415
g8
(g16
g10
NtRp2416
(dp2417
g19
g8
(g20
g10
NtRp2418
(dp2419
g23
g1081
sg25
I1
sg26
F-0.023724351092772298
sg27
S'A'
sg28
S'C'
sg29
g30
sg31
g32
sg33
F12.0107
sg34
g35
sbsg36
g37
(g38
(I0
tS'b'
tRp2420
(I1
(I3
tg41
I00
S'\x8f?\x9eNa\xd8\x0c@\x90U\xf2\x911\xb8\xe3\xbf\x90Sf,\xd1\x8b\xcb?'
tbsg42
(lp2421
sbassI68
(dp2422
g6
(lp2423
g8
(g16
g10
NtRp2424
(dp2425
g19
g8
(g20
g10
NtRp2426
(dp2427
g23
g1233
sg25
I1
sg26
F0.24485623083539299
sg27
S'A'
sg28
S'H'
sg29
g1234
sg31
g1235
sg33
F1.0079400000000001
sg34
g1236
sbsg36
g37
(g38
(I0
tS'b'
tRp2428
(I1
(I3
tg41
I00
S'\\\x98\xd1\x17\xa7\x06\x17@\x80\xe8l\x83rx\xbe\xbfh;I\xf2$\xb2\xce?'
tbsg42
(lp2429
sbassI5
(dp2430
g6
(lp2431
g8
(g16
g10
NtRp2432
(dp2433
g19
g8
(g20
g10
NtRp2434
(dp2435
g23
g1099
sg25
I1
sg26
F-0.061201460917836327
sg27
S'A'
sg28
S'C'
sg29
g63
sg31
g64
sg33
F12.0107
sg34
g65
sbsg36
g37
(g38
(I0
tS'b'
tRp2436
(I1
(I3
tg41
I00
S'\x95?\x9eNa\xd8\x00@ \x8b\xde\x99;\xb7\xf7\xbf|Sf,\xd1\x8b\xcb?'
tbsg42
(lp2437
sbassI6
(dp2438
g6
(lp2439
g8
(g16
g10
NtRp2440
(dp2441
g19
g8
(g20
g10
NtRp2442
(dp2443
g23
g1108
sg25
I1
sg26
F-0.061723031912765083
sg27
S'A'
sg28
S'C'
sg29
g75
sg31
g76
sg33
F12.0107
sg34
g77
sbsg36
g37
(g38
(I0
tS'b'
tRp2444
(I1
(I3
tg41
I00
S',\x7f<\x9d\xc2\xb0\xf9?\x90U\xf2\x911\xb8\xe3\xbfXSf,\xd1\x8b\xcb?'
tbsg42
(lp2445
sbassI7
(dp2446
g6
(lp2447
g8
(g16
g10
NtRp2448
(dp2449
g19
g8
(g20
g10
NtRp2450
(dp2451
g23
g1099
sg25
I1
sg26
F-0.061201460917836327
sg27
S'A'
sg28
S'C'
sg29
g86
sg31
g87
sg33
F12.0107
sg34
g88
sbsg36
g37
(g38
(I0
tS'b'
tRp2452
(I1
(I3
tg41
I00
S'\x95?\x9eNa\xd8\x00@\xc0\x0e\xbf\x1b\x97\xfb\xcf?`Sf,\xd1\x8b\xcb?'
tbsg42
(lp2453
sbassI8
(dp2454
g6
(lp2455
g8
(g16
g10
NtRp2456
(dp2457
g19
g8
(g20
g10
NtRp2458
(dp2459
g23
g1090
sg25
I1
sg26
F-0.054553844020285638
sg27
S'A'
sg28
S'C'
sg29
g97
sg31
g98
sg33
F12.0107
sg34
g99
sbsg36
g37
(g38
(I0
tS'b'
tRp2460
(I1
(I3
tg41
I00
S'\x8f?\x9eNa\xd8\x08@\xc0\x0e\xbf\x1b\x97\xfb\xcf?pSf,\xd1\x8b\xcb?'
tbsg42
(lp2461
sbassI73
(dp2462
g6
(lp2463
g8
(g16
g10
NtRp2464
(dp2465
g19
g8
(g20
g10
NtRp2466
(dp2467
g23
S'H'
sg25
I1
sg26
F0.41699999999999998
sg27
S'A'
sg28
S'H'
sg29
g1937
sg31
S'H'
sg33
F1.0079400000000001
sg34
S'H'
sbsg36
g37
(g38
(I0
tS'b'
tRp2468
(I1
(I3
tg1939
I00
S'KF_4\x81\x18\xf2?`\x16H`\x85j\xd0\xbf\xfevR\xb3\xd1\x9b\xf4\xbf'
tbsg42
(lp2469
sbassI71
(dp2470
g6
(lp2471
g8
(g16
g10
NtRp2472
(dp2473
g19
g8
(g20
g10
NtRp2474
(dp2475
g23
S'H'
sg25
I1
sg26
F0.41699999999999998
sg27
S'A'
sg28
S'H'
sg29
g1917
sg31
S'H'
sg33
F1.0079400000000001
sg34
S'H'
sbsg36
g37
(g38
(I0
tS'b'
tRp2476
(I1
(I3
tg1919
I00
S'KF_4\x81\x18\xf2?\x10\xd8\xf0|\x0f\x02\xe5\xbfh\xef\x13\xb3\x94\xca\xf9?'
tbsg42
(lp2477
sbassI15
(dp2478
g6
(lp2479
g8
(g16
g10
NtRp2480
(dp2481
g19
g8
(g20
g10
NtRp2482
(dp2483
g23
g1133
sg25
I1
sg26
F0.062344200605142688
sg27
S'A'
sg28
S'H'
sg29
g109
sg31
g110
sg33
F1.0079400000000001
sg34
g111
sbsg36
g37
(g38
(I0
tS'b'
tRp2484
(I1
(I3
tg41
I00
S"\x0fTL\x96BS\x0b@\x00\r\x19\x070'\x00\xc0|Sf,\xd1\x8b\xcb?"
tbsg42
(lp2485
sbassI16
(dp2486
g6
(lp2487
g8
(g16
g10
NtRp2488
(dp2489
g19
g8
(g20
g10
NtRp2490
(dp2491
g23
g1142
sg25
I1
sg26
F0.061775861220190055
sg27
S'A'
sg28
S'H'
sg29
g121
sg31
g122
sg33
F1.0079400000000001
sg34
g123
sbsg36
g37
(g38
(I0
tS'b'
tRp2492
(I1
(I3
tg41
I00
S",V\xe0\r\x00\xbb\xfc?\x00\r\x19\x070'\x00\xc0\x80Sf,\xd1\x8b\xcb?"
tbsg42
(lp2493
sbassI72
(dp2494
g6
(lp2495
g8
(g16
g10
NtRp2496
(dp2497
g19
g8
(g20
g10
NtRp2498
(dp2499
g23
S'H'
sg25
I1
sg26
F0.41699999999999998
sg27
S'A'
sg28
S'H'
sg29
g1927
sg31
S'H'
sg33
F1.0079400000000001
sg34
S'H'
sbsg36
g37
(g38
(I0
tS'b'
tRp2500
(I1
(I3
tg1929
I00
S'\xd6\xe6\x82.\xfb\x9d\xd7\xbf@`\xc3\xf3=\x08\xc4\xbf\xceUz\x19\xfb0\xf8?'
tbsg42
(lp2501
sbassI18
(dp2502
g6
(lp2503
g8
(g16
g10
NtRp2504
(dp2505
g19
g8
(g20
g10
NtRp2506
(dp2507
g23
g1142
sg25
I1
sg26
F0.061775861220190055
sg27
S'A'
sg28
S'H'
sg29
g132
sg31
g133
sg33
F1.0079400000000001
sg34
g134
sbsg36
g37
(g38
(I0
tS'b'
tRp2508
(I1
(I3
tg41
I00
S',V\xe0\r\x00\xbb\xfc?p\xe1\x96\xaf.-\xe9?pSf,\xd1\x8b\xcb?'
tbsg42
(lp2509
sbassI19
(dp2510
g6
(lp2511
g8
(g16
g10
NtRp2512
(dp2513
g19
g8
(g20
g10
NtRp2514
(dp2515
g23
g1133
sg25
I1
sg26
F0.062344200605142688
sg27
S'A'
sg28
S'H'
sg29
g143
sg31
g144
sg33
F1.0079400000000001
sg34
g145
sbsg36
g37
(g38
(I0
tS'b'
tRp2516
(I1
(I3
tg41
I00
S'\x0bTL\x96BS\x0b@\x90\xe1\x96\xaf.-\xe9?\x84Sf,\xd1\x8b\xcb?'
tbsg42
(lp2517
sbassI21
(dp2518
g6
(lp2519
g8
(g16
g10
NtRp2520
(dp2521
g19
g8
(g20
g10
NtRp2522
(dp2523
g23
S'C'
sg25
I1
sg26
F0.14715600000000001
sg27
S'A'
sg28
S'C'
sg29
g154
sg31
S'C'
sg33
F12.0107
sg34
S'C'
sbsg36
g37
(g38
(I0
tS'b'
tRp2524
(I1
(I3
tg41
I00
S'\x19\x18\x084\x12\x94\xe7?P\xa5fA\xdd\xcb\xe7\xbf\xc8l\x1a\xc5\x02\x96\xd0?'
tbsg42
(lp2525
sbassI22
(dp2526
g6
(lp2527
g8
(g16
g10
NtRp2528
(dp2529
g19
g8
(g20
g10
NtRp2530
(dp2531
g23
S'C'
sg25
I1
sg26
F0.14715600000000001
sg27
S'A'
sg28
S'C'
sg29
g154
sg31
S'C'
sg33
F12.0107
sg34
S'C'
sbsg36
g37
(g38
(I0
tS'b'
tRp2532
(I1
(I3
tg41
I00
S'\xb2\x96v\xce\x8a\x8e\xd5?\xc0\x1b\n,\xd8\x96\xc8?\xfc.DX\x18Y\xb9?'
tbsg42
(lp2533
sbassI57
(dp2534
g6
(lp2535
g8
(g16
g10
NtRp2536
(dp2537
g19
g8
(g20
g10
NtRp2538
(dp2539
g23
S'S'
sg25
I1
sg26
F0.10279620598469805
sg27
S'A'
sg28
S'S'
sg29
g179
sg31
g180
sg33
F32.064999999999998
sg34
g181
sbsg36
g37
(g38
(I0
tS'b'
tRp2540
(I1
(I3
tg41
I00
S'\x18\x8e\xfas6\xc9\x11@\x10\xbb\x149W\xfd\xe4\xbf8;I\xf2$\xb2\xce?'
tbsg42
(lp2541
sbassI58
(dp2542
g6
(lp2543
g8
(g16
g10
NtRp2544
(dp2545
g19
g8
(g20
g10
NtRp2546
(dp2547
g23
g1207
sg25
I1
sg26
F-0.14266891092101905
sg27
S'A'
sg28
S'O'
sg29
g190
sg31
g191
sg33
F15.9994
sg34
g192
sbsg36
g37
(g38
(I0
tS'b'
tRp2548
(I1
(I3
tg41
I00
S'\x1a\x8e\xfas6\xc9\x11@\xe0\x89\xd6\x8dQ\x05\xd6?H;I\xf2$\xb2\xce?'
tbsg42
(lp2549
sbassI59
(dp2550
g6
(lp2551
g8
(g16
g10
NtRp2552
(dp2553
g19
g8
(g20
g10
NtRp2554
(dp2555
g23
g1207
sg25
I1
sg26
F-0.14266891092101905
sg27
S'A'
sg28
S'O'
sg29
g201
sg31
g202
sg33
F15.9994
sg34
g203
sbsg36
g37
(g38
(I0
tS'b'
tRp2556
(I1
(I3
tg41
I00
S'\x1c\x8e\xfas6\xc9\x11@p]\x8a\x9c\xab~\xfa\xbf\xf4:I\xf2$\xb2\xce?'
tbsg42
(lp2557
sbassI60
(dp2558
g6
(lp2559
g8
(g16
g10
NtRp2560
(dp2561
g19
g8
(g20
g10
NtRp2562
(dp2563
g23
g1224
sg25
I1
sg26
F-0.25024668104089182
sg27
S'A'
sg28
S'O'
sg29
g213
sg31
g214
sg33
F15.9994
sg34
g215
sbsg36
g37
(g38
(I0
tS'b'
tRp2564
(I1
(I3
tg41
I00
S'\x1e\x8e\xfas6\xc9\x15@\xd0\xba\x149W\xfd\xe4\xbf0;I\xf2$\xb2\xce?'
tbsg42
(lp2565
sbassI4
(dp2566
g6
(lp2567
g8
(g16
g10
NtRp2568
(dp2569
g19
g8
(g20
g10
NtRp2570
(dp2571
g23
g1090
sg25
I1
sg26
F-0.054553844020285638
sg27
S'A'
sg28
S'C'
sg29
g51
sg31
g52
sg33
F12.0107
sg34
g53
sbsg36
g37
(g38
(I0
tS'b'
tRp2572
(I1
(I3
tg41
I00
S'\x8f?\x9eNa\xd8\x08@\x10\x8b\xde\x99;\xb7\xf7\xbf\xa8Sf,\xd1\x8b\xcb?'
tbsg42
(lp2573
sbasssg244
(dp2574
sg246
I00
sg247
(lp2575
(lp2576
I1
aI0
aI0
aI0
aa(lp2577
I0
aI1
aI0
aI0
aa(lp2578
I0
aI0
aI1
aI0
aa(lp2579
I0
aI0
aI0
aI1
aasg253
(dp2580
sg31
S'PSS'
p2581
sg256
(dp2582
I3
(dp2583
I8
(dp2584
sI57
(dp2585
sI4
(dp2586
ssI68
(dp2587
I60
(dp2588
ssI5
(dp2589
I16
(dp2590
sI4
(dp2591
sI6
(dp2592
ssI6
(dp2593
I7
(dp2594
sI5
g2592
sI21
(dp2595
ssI7
(dp2596
I8
(dp2597
sI18
(dp2598
sI6
g2594
ssI8
(dp2599
I19
(dp2600
sI3
g2584
sI7
g2597
ssI73
(dp2601
I22
(dp2602
ssI71
(dp2603
I21
(dp2604
ssI15
(dp2605
I4
(dp2606
ssI16
(dp2607
I5
g2590
ssI72
(dp2608
I22
(dp2609
ssI18
(dp2610
I7
g2598
ssI19
(dp2611
I8
g2600
ssI21
(dp2612
I22
(dp2613
sI6
g2595
sI71
g2604
ssI22
(dp2614
I72
g2609
sI73
g2602
sI21
g2613
ssI57
(dp2615
I59
(dp2616
sI58
(dp2617
sI3
g2585
sI60
(dp2618
ssI58
(dp2619
I57
g2617
ssI59
(dp2620
I57
g2616
ssI60
(dp2621
I57
g2618
sI68
g2588
ssI4
(dp2622
I3
g2586
sI5
g2591
sI15
g2606
sssg298
g8
(g299
g10
NtRp2623
(dp2624
g302
(dp2625
S'C'
(lp2626
F-0.14940000000000001
aF2
aF0
asS'H'
(lp2627
F-0.029999999999999999
aF1.3582000000000001
aF0
asg1142
(lp2628
F-0.014999999999999999
aF1.4590000000000001
aF0.063100000000000003
asg1133
(lp2629
F-0.014999999999999999
aF1.4590000000000001
aF0.1069
asS'S'
(lp2630
F-0.34399999999999997
aF2.0150000000000001
aF1.1627959999999999
asg1081
(lp2631
F-0.085999999999999993
aF1.9079999999999999
aF-0.14380000000000001
asg1207
(lp2632
F-0.095699999999999993
aF1.7022999999999999
aF-0.41010000000000002
asg1224
(lp2633
F-0.095699999999999993
aF1.7022999999999999
aF-0.31309999999999999
asg1233
(lp2634
F-0.021999999999999999
aF1.3200000000000001
aF0.22750400000000001
asg1090
(lp2635
F-0.085999999999999993
aF1.9079999999999999
aF-0.090499999999999997
asg1099
(lp2636
F-0.085999999999999993
aF1.9079999999999999
aF-0.1133
asg1108
(lp2637
F-0.085999999999999993
aF1.9079999999999999
aF-0.045600000000000002
assg316
(dp2638
sg318
(dp2639
sg320
Nsg321
(dp2640
g1336
(lp2641
F350
aF1.48
asg1338
(lp2642
F350
aF1.74
asg1340
(lp2643
F317
aF1.51
asg1342
(lp2644
F0
aF0
asg1344
(lp2645
F309
aF1.111
asg1346
(lp2646
F0
aF0
asg1348
(lp2647
F469
aF1.3999999999999999
asg1350
(lp2648
F469
aF1.3999999999999999
asg1352
(lp2649
F566
aF0.95999999999999996
asg1354
(lp2650
F367
aF1.0800000000000001
asg1356
(lp2651
F350
aF1.48
asg1358
(lp2652
F310
aF1.526
asg1360
(lp2653
F367
aF1.0800000000000001
asg1362
(lp2654
F469
aF1.3999999999999999
assg354
(dp2655
g2045
(lp2656
F0
aF0
asg1367
(lp2657
F70
aF120
asg1369
(lp2658
F0
aF0
asg1405
(lp2659
F63
aF120
asg1373
(lp2660
F70
aF120
asg1375
(lp2661
F35
aF120
asg1377
(lp2662
F175
aF115.5
asg1379
(lp2663
F63
aF120
asg1381
(lp2664
F35
aF120
asg1383
(lp2665
F35
aF120
asg1385
(lp2666
F63
aF120.47
asg1387
(lp2667
F0
aF0
asg1389
(lp2668
F63
aF120
asg1391
(lp2669
F0
aF0
asg1393
(lp2670
F60
aF109.47
asg1395
(lp2671
F70
aF120
asg1397
(lp2672
F70
aF120
asg1399
(lp2673
F0
aF0
asg1401
(lp2674
F175
aF115.5
asg1403
(lp2675
F34.5
aF110.09999999999999
asg1371
(lp2676
F34.5
aF110.09999999999999
asg1407
(lp2677
F35
aF120
assg404
(dp2678
S'C'
F0
sg305
F0
sS'H'
F0
sg406
F0
sg407
F0
sS'S'
F0
sg414
F0
sS'O'
F0
sg408
F0
sg409
F0
sg410
F0
sg411
F0
sg412
F0
sg413
F0
sg212
F0
sg415
F0
ssg416
g417
sg418
(dp2679
g1411
(lp2680
F0
aI0
aF0
asg1413
(lp2681
F0.20000000000000001
aF3
aI0
asg1415
(lp2682
F0.20000000000000001
aF3
aI0
asg1417
(lp2683
F0.20000000000000001
aF3
aF0
asg1419
(lp2684
F0
aI0
aF0
asg1421
(lp2685
F0.20000000000000001
aF3
aF0
asg1423
(lp2686
F0
aI0
aF0
asg1425
(lp2687
F0
aI0
aF0
asg1427
(lp2688
F0.20000000000000001
aF3
aF0
asg1429
(lp2689
F2.3100000000000001
aF3
aF180
asg1431
(lp2690
F0
aI0
aF0
asg1433
(lp2691
F0.20000000000000001
aF3
aF0
asg1435
(lp2692
F0.20000000000000001
aF3
aF0
asg1437
(lp2693
F0
aI0
aF0
asg1439
(lp2694
F0
aI0
aF0
asg1441
(lp2695
F0.20000000000000001
aF3
aF0
asg1443
(lp2696
F0.20000000000000001
aF3
aF0
asg1445
(lp2697
F0
aI0
aF0
asg1447
(lp2698
F0.20000000000000001
aF3
aF0
asg1449
(lp2699
F0
aI0
aF0
asg1451
(lp2700
F0
aI0
aF0
asg1453
(lp2701
F2.3100000000000001
aF3
aF180
asg1455
(lp2702
F2.3100000000000001
aF3
aF180
asg1457
(lp2703
F0
aI0
aF0
asg1459
(lp2704
F2.3100000000000001
aF3
aF180
assbsg470
g2582
sbasssS'trad'
p2705
Nsg253
(dp2706
sS'molNameIndex'
p2707
(dp2708
g255
I2
sg941
I2
sS'PSSs_3'
p2709
I1
sg1642
I2
sg2276
I2
sg644
I2
sg1966
I1
sg1272
I2
ssS'modificationTime'
p2710
F18.120000000000001
sS'atomOrder'
p2711
(lp2712
sS'solvents'
p2713
(dp2714
sg256
(dp2715
g4
(dp2716
sg471
(dp2717
sg774
(dp2718
sg1069
(dp2719
sg1461
(dp2720
sg1769
(dp2721
sg2095
(dp2722
sg2408
(dp2723
ssS'mixName'
p2724
S'PSS'
p2725
sg470
g2715
s.