(dp1
S'node'
p2
(dp3
S'Cellulose_e_1'
p4
(dp5
S'attrs'
p6
(lp7
ccopy_reg
_reconstructor
p8
(clib.chemicalGraph.molecule.Molecule
Molecule
p9
c__builtin__
object
p10
NtRp11
(dp12
g2
(dp13
I1
(dp14
S'attrs'
p15
(lp16
g8
(clib.chemicalGraph.molecule.AtomAttributes
AtomAttributes
p17
g10
NtRp18
(dp19
S'_info'
p20
g8
(clib.chemicalGraph.molecule.AtomAttributes
AtomInfo
p21
g10
NtRp22
(dp23
S'_type'
p24
S'C100'
p25
sS'_res_seq'
p26
I1
sS'_charge'
p27
F0.34999999999999998
sS'_chain'
p28
S'A'
sS'_element'
p29
S'C'
sS'_residue'
p30
S'CEL'
p31
sS'_name'
p32
S'C3'
p33
sS'_mass'
p34
F12.0107
sS'_fullname'
p35
S'Carbon'
p36
sbsS'_coordinates'
p37
cnumpy.core.multiarray
_reconstruct
p38
(cnumpy
ndarray
p39
(I0
tS'b'
tRp40
(I1
(I3
tcnumpy
dtype
p41
(S'f8'
I0
I1
tRp42
(I3
S'<'
NNNI-1
I-1
I0
tbI00
S'\x80\xd7\x1f\x86M?\xb8?\x008\xeb\x02\xf6\\\xc3?\xcf\xfa"\xf3u\xb5\xc8\xbf'
tbsS'_attributes'
p43
(lp44
sbassI2
(dp45
g15
(lp46
g8
(g17
g10
NtRp47
(dp48
g20
g8
(g21
g10
NtRp49
(dp50
g24
S'C200'
p51
sg26
I1
sg27
F0.14999999999999999
sg28
S'A'
sg29
S'C'
sg30
g31
sg32
S'C3'
p52
sg34
F12.0107
sg35
S'Carbon'
p53
sbsg37
g38
(g39
(I0
tS'b'
tRp54
(I1
(I3
tg42
I00
S'H\xe4T\xc5\\\xc2\xf1\xbf\xfe\xf0!\x02\x11\xec\xf0?4\xd2\xe1\xf9\xb5\xa5\xbf\xbf'
tbsg43
(lp55
sbassI3
(dp56
g15
(lp57
g8
(g17
g10
NtRp58
(dp59
g20
g8
(g21
g10
NtRp60
(dp61
g24
S'H140'
p62
sg26
I1
sg27
F0.10000000000000001
sg28
S'A'
sg29
S'H'
sg30
g31
sg32
S'H'
sg34
F1.0079
sg35
S'Hydrogen'
p63
sbsg37
g38
(g39
(I0
tS'b'
tRp64
(I1
(I3
tg42
I00
S'p\x10q\x04%r\xfa\xbf>!k\x92\t(\xf0?\x1f@B\xd7v\x80\xf1\xbf'
tbsg43
(lp65
sbassI4
(dp66
g15
(lp67
g8
(g17
g10
NtRp68
(dp69
g20
g8
(g21
g10
NtRp70
(dp71
g24
S'O200'
p72
sg26
I1
sg27
F-0.65000000000000002
sg28
S'A'
sg29
S'O'
sg30
g31
sg32
S'O3'
p73
sg34
F15.9994
sg35
S'Oxygen'
p74
sbsg37
g38
(g39
(I0
tS'b'
tRp75
(I1
(I3
tg42
I00
S'`\x879y$\xc4\xfe\xbfx\x06\xbag\x0c,\xdf?\xdep\tE\x03\x1b\xec?'
tbsg43
(lp76
sbassI5
(dp77
g15
(lp78
g8
(g17
g10
NtRp79
(dp80
g20
g8
(g21
g10
NtRp81
(dp82
g24
S'C300'
p83
sg26
I1
sg27
F0.14999999999999999
sg28
S'A'
sg29
S'C'
sg30
g31
sg32
S'C3'
p84
sg34
F12.0107
sg35
S'Carbon'
p85
sbsg37
g38
(g39
(I0
tS'b'
tRp86
(I1
(I3
tg42
I00
S'\xd0*\xb5m\xb8\x87\xee\xbf[$t\xee\x7f\x0c\x04@\xfc]\x8f\xdem/\xd3?'
tbsg43
(lp87
sbassI6
(dp88
g15
(lp89
g8
(g17
g10
NtRp90
(dp91
g20
g8
(g21
g10
NtRp92
(dp93
g24
S'H150'
p94
sg26
I1
sg27
F0.10000000000000001
sg28
S'A'
sg29
S'H'
sg30
g31
sg32
S'H'
sg34
F1.0079
sg35
S'Hydrogen'
p95
sbsg37
g38
(g39
(I0
tS'b'
tRp96
(I1
(I3
tg42
I00
S'\x88\x05s\xcct\xb8\xf6\xbf[\x08-\xb1\xb85\t@\x0c\xc0\x82:N]\xde\xbf'
tbsg43
(lp97
sbassI7
(dp98
g15
(lp99
g8
(g17
g10
NtRp100
(dp101
g20
g8
(g21
g10
NtRp102
(dp103
g24
S'O300'
p104
sg26
I1
sg27
F-0.65000000000000002
sg28
S'A'
sg29
S'O'
sg30
g31
sg32
S'O3'
p105
sg34
F15.9994
sg35
S'Oxygen'
p106
sbsg37
g38
(g39
(I0
tS'b'
tRp107
(I1
(I3
tg42
I00
S'\x80@;\x1c\xa8\xa0\xfb\xbf\xfb\x17\xba~\xaf\x03\x05@\x01\xc7\x9c\xae\x8d\x90\xf7?'
tbsg43
(lp108
sbassI8
(dp109
g15
(lp110
g8
(g17
g10
NtRp111
(dp112
g20
g8
(g21
g10
NtRp113
(dp114
g24
S'C400'
p115
sg26
I1
sg27
F0.14999999999999999
sg28
S'A'
sg29
S'C'
sg30
g31
sg32
S'C2'
p116
sg34
F12.0107
sg35
S'Carbon'
p117
sbsg37
g38
(g39
(I0
tS'b'
tRp118
(I1
(I3
tg42
I00
S'@\x97\x11\xbc\xe1\x03\xdc?K\xc0\x1b\xaf\xe5\x1e\x08@]DR\xd5\xa9Z\xe2?'
tbsg43
(lp119
sbassI9
(dp120
g15
(lp121
g8
(g17
g10
NtRp122
(dp123
g20
g8
(g21
g10
NtRp124
(dp125
g24
S'H160'
p126
sg26
I1
sg27
F0.10000000000000001
sg28
S'A'
sg29
S'H'
sg30
g31
sg32
S'H'
sg34
F1.0079
sg35
S'Hydrogen'
p127
sbsg37
g38
(g39
(I0
tS'b'
tRp128
(I1
(I3
tg42
I00
S'\xc0$2\xae\x14\xb3\xe2?[\x14`\xd7\xd3\x0f\n@\x01\x98\xb7\x19\xd4Y\xfa?'
tbsg43
(lp129
sbassI10
(dp130
g15
(lp131
g8
(g17
g10
NtRp132
(dp133
g20
g8
(g21
g10
NtRp134
(dp135
g24
S'O400'
p136
sg26
I1
sg27
F-0.5
sg28
S'A'
sg29
S'O'
sg30
g31
sg32
S'O2'
p137
sg34
F15.9994
sg35
S'Oxygen'
p138
sbsg37
g38
(g39
(I0
tS'b'
tRp139
(I1
(I3
tg42
I00
S'\x10"\x08\x0bcu\xe1?\x96\x8f)uW\xe7\x10@Q\x15\xee\xf8\xc9\x9c\xcd\xbf'
tbsg43
(lp140
sbassI11
(dp141
g15
(lp142
g8
(g17
g10
NtRp143
(dp144
g20
g8
(g21
g10
NtRp145
(dp146
g24
S'C500'
p147
sg26
I1
sg27
F0.10000000000000001
sg28
S'A'
sg29
S'C'
sg30
g31
sg32
S'C2'
p148
sg34
F12.0107
sg35
S'Carbon'
p149
sbsg37
g38
(g39
(I0
tS'b'
tRp150
(I1
(I3
tg42
I00
S'\xb0\x94\xd0\xb7\xa2}\xf7?\xb6\x9ew\x02}\xcb\xff?@h]^c\xea\xb9?'
tbsg43
(lp151
sbassI12
(dp152
g15
(lp153
g8
(g17
g10
NtRp154
(dp155
g20
g8
(g21
g10
NtRp156
(dp157
g24
S'H170'
p158
sg26
I1
sg27
F0.10000000000000001
sg28
S'A'
sg29
S'H'
sg30
g31
sg32
S'H'
sg34
F1.0079
sg35
S'Hydrogen'
p159
sbsg37
g38
(g39
(I0
tS'b'
tRp160
(I1
(I3
tg42
I00
S'\xe0P\xbb\xeb\x00\xf0\xf7?\xd6\xa5\xc5y\xeb\x9b\xfe?\x94\x96$\x19]\x1d\xf0\xbf'
tbsg43
(lp161
sbassI13
(dp162
g15
(lp163
g8
(g17
g10
NtRp164
(dp165
g20
g8
(g21
g10
NtRp166
(dp167
g24
S'O500'
p168
sg26
I1
sg27
F-0.40000000000000002
sg28
S'A'
sg29
S'O'
sg30
g31
sg32
S'O2'
p169
sg34
F15.9994
sg35
S'Oxygen'
p170
sbsg37
g38
(g39
(I0
tS'b'
tRp171
(I1
(I3
tg42
I00
S'\xc0\xc8}O\xb11\xf1?\xfc}\xd1Y}9\xe7?\xc8W3M>,\xe5?'
tbsg43
(lp172
sbassI14
(dp173
g15
(lp174
g8
(g17
g10
NtRp175
(dp176
g20
g8
(g21
g10
NtRp177
(dp178
g24
S'C600'
p179
sg26
I1
sg27
F0.050000000000000003
sg28
S'A'
sg29
S'C'
sg30
g31
sg32
S'C3'
p180
sg34
F12.0107
sg35
S'Carbon'
p181
sbsg37
g38
(g39
(I0
tS'b'
tRp182
(I1
(I3
tg42
I00
S'\x08\xef\x8b{[\xb2\x06@[\xa7T\xb8\xb7\x18\x01@\x0c\xf8\x06%\xc3/\xe5?'
tbsg43
(lp183
sbassI15
(dp184
g15
(lp185
g8
(g17
g10
NtRp186
(dp187
g20
g8
(g21
g10
NtRp188
(dp189
g24
S'O600'
p190
sg26
I1
sg27
F-0.65000000000000002
sg28
S'A'
sg29
S'O'
sg30
g31
sg32
S'O3'
p191
sg34
F15.9994
sg35
S'Oxygen'
p192
sbsg37
g38
(g39
(I0
tS'b'
tRp193
(I1
(I3
tg42
I00
S'@:\xac\xc5\x02\xac\t@\x9c\xd0\x9ad+T\xeb?\xb3\xae`% T\xf2?'
tbsg43
(lp194
sbassI16
(dp195
g15
(lp196
g8
(g17
g10
NtRp197
(dp198
g20
g8
(g21
g10
NtRp199
(dp200
g24
S'H180'
p201
sg26
I1
sg27
F0.10000000000000001
sg28
S'A'
sg29
S'H'
sg30
g31
sg32
S'H'
sg34
F1.0079
sg35
S'Hydrogen'
p202
sbsg37
g38
(g39
(I0
tS'b'
tRp203
(I1
(I3
tg42
I00
S'\x80\xcc\xef?\x81\xf3\xde?\x00\xb0P\xfc\xd0q\x87?^"=\xa8\xf3\xb2\xf3\xbf'
tbsg43
(lp204
sbassI17
(dp205
g15
(lp206
g8
(g17
g10
NtRp207
(dp208
g20
g8
(g21
g10
NtRp209
(dp210
g24
S'H190'
p211
sg26
I1
sg27
F0.40000000000000002
sg28
S'A'
sg29
S'H'
sg30
g31
sg32
S'HO'
p212
sg34
F1.0079
sg35
S'Hydrogen'
p213
sbsg37
g38
(g39
(I0
tS'b'
tRp214
(I1
(I3
tg42
I00
S'\xd0\x853Y\xe3\xf2\xf8\xbf\x80\x86\xab\xf4\xb1;\xd9\xbf6M\xec\xa4D\r\xf0?'
tbsg43
(lp215
sbassI18
(dp216
g15
(lp217
g8
(g17
g10
NtRp218
(dp219
g20
g8
(g21
g10
NtRp220
(dp221
g24
S'H210'
p222
sg26
I1
sg27
F0.40000000000000002
sg28
S'A'
sg29
S'H'
sg30
g31
sg32
S'HO'
p223
sg34
F1.0079
sg35
S'Hydrogen'
p224
sbsg37
g38
(g39
(I0
tS'b'
tRp225
(I1
(I3
tg42
I00
S'\xb0z\x8fP\xa2\x87\x01\xc0\xd6At\xad\x84\x89\xfc?\x8d\xe2]\x9a\xd7\xa2\xf8?'
tbsg43
(lp226
sbassI19
(dp227
g15
(lp228
g8
(g17
g10
NtRp229
(dp230
g20
g8
(g21
g10
NtRp231
(dp232
g24
S'H110'
p233
sg26
I1
sg27
F0.10000000000000001
sg28
S'A'
sg29
S'H'
sg30
g31
sg32
S'H'
sg34
F1.0079
sg35
S'Hydrogen'
p234
sbsg37
g38
(g39
(I0
tS'b'
tRp235
(I1
(I3
tg42
I00
S'\xa0\xa95>L\xda\x06@{\x1f\xec\xe1\xf8\xe5\x06@Ys\x860\xe5\x11\xf8?'
tbsg43
(lp236
sbassI20
(dp237
g15
(lp238
g8
(g17
g10
NtRp239
(dp240
g20
g8
(g21
g10
NtRp241
(dp242
g24
S'H120'
p243
sg26
I1
sg27
F0.10000000000000001
sg28
S'A'
sg29
S'H'
sg30
g31
sg32
S'H'
sg34
F1.0079
sg35
S'Hydrogen'
p244
sbsg37
g38
(g39
(I0
tS'b'
tRp245
(I1
(I3
tg42
I00
S'8\x06nB\xb1q\x0c@\x1b\x82cGg\xb8\x03@\xdcpC8\xb8&\xbf\xbf'
tbsg43
(lp246
sbassI21
(dp247
g15
(lp248
g8
(g17
g10
NtRp249
(dp250
g20
g8
(g21
g10
NtRp251
(dp252
g24
S'H130'
p253
sg26
I1
sg27
F0.40000000000000002
sg28
S'A'
sg29
S'H'
sg30
g31
sg32
S'HO'
p254
sg34
F1.0079
sg35
S'Hydrogen'
p255
sbsg37
g38
(g39
(I0
tS'b'
tRp256
(I1
(I3
tg42
I00
S"\xf0^%\x8d\x05\x1d\x03@x\x8c,{\xb5\x9d\xdd?\xb6'\xb6}_L\xf7?"
tbsg43
(lp257
sbassI22
(dp258
g15
(lp259
g8
(g17
g10
NtRp260
(dp261
g20
g8
(g21
g10
NtRp262
(dp263
g24
g25
sg26
I1
sg27
F0.34999999999999998
sg28
S'A'
sg29
S'C'
sg30
g31
sg32
g33
sg34
F12.0107
sg35
g36
sbsg37
g38
(g39
(I0
tS'b'
tRp264
(I1
(I3
tg42
I00
S'\xa0)\xe8\xa3g\xcc\xe0?\x88etX\xf8\xde\x15@"v\xb8\x99;\xb8\xe5?'
tbsg43
(lp265
sbassI23
(dp266
g15
(lp267
g8
(g17
g10
NtRp268
(dp269
g20
g8
(g21
g10
NtRp270
(dp271
g24
g51
sg26
I1
sg27
F0.14999999999999999
sg28
S'A'
sg29
S'C'
sg30
g31
sg32
g52
sg34
F12.0107
sg35
g53
sbsg37
g38
(g39
(I0
tS'b'
tRp272
(I1
(I3
tg42
I00
S'`\xf6\xaao\x85\xac\xfb?\x08\x88\xe5\xe8\x14\x7f\x19@\xaa\xf1+\xdc\x94\x7f\xe3?'
tbsg43
(lp273
sbassI24
(dp274
g15
(lp275
g8
(g17
g10
NtRp276
(dp277
g20
g8
(g21
g10
NtRp278
(dp279
g24
g62
sg26
I1
sg27
F0.10000000000000001
sg28
S'A'
sg29
S'H'
sg30
g31
sg32
S'H'
sg34
F1.0079
sg35
g63
sbsg37
g38
(g39
(I0
tS'b'
tRp280
(I1
(I3
tg42
I00
S'P\x91c\xd7&.\x02@\x08\xd4\xf7\x0c\x13N\x19@\xe4\x1b\xba\xe5\xe5E\xf9?'
tbsg43
(lp281
sbassI25
(dp282
g15
(lp283
g8
(g17
g10
NtRp284
(dp285
g20
g8
(g21
g10
NtRp286
(dp287
g24
g72
sg26
I1
sg27
F-0.65000000000000002
sg28
S'A'
sg29
S'O'
sg30
g31
sg32
g73
sg34
F15.9994
sg35
g74
sbsg37
g38
(g39
(I0
tS'b'
tRp288
(I1
(I3
tg42
I00
S'\xd0\xcc\xc7\x91&W\x04@(\xac\xd8n\xd16\x17@\xaer3PJ \xd9\xbf'
tbsg43
(lp289
sbassI26
(dp290
g15
(lp291
g8
(g17
g10
NtRp292
(dp293
g20
g8
(g21
g10
NtRp294
(dp295
g24
g83
sg26
I1
sg27
F0.14999999999999999
sg28
S'A'
sg29
S'C'
sg30
g31
sg32
g84
sg34
F12.0107
sg35
g85
sbsg37
g38
(g39
(I0
tS'b'
tRp296
(I1
(I3
tg42
I00
S'\xa0\xa70\xe1\x04.\xf9?\xe8\x1d\x97\x9fPJ\x1f@L"\xa0\xb6\x9c\xcc\xc7?'
tbsg43
(lp297
sbassI27
(dp298
g15
(lp299
g8
(g17
g10
NtRp300
(dp301
g20
g8
(g21
g10
NtRp302
(dp303
g24
g94
sg26
I1
sg27
F0.10000000000000001
sg28
S'A'
sg29
S'H'
sg30
g31
sg32
S'H'
sg34
F1.0079
sg35
g95
sbsg37
g38
(g39
(I0
tS'b'
tRp304
(I1
(I3
tg42
I00
S'\xf0\x8bd\xbbNQ\x00@\xf6\xc7y\x80v\xef @b\x171:\x85\xb9\xee?'
tbsg43
(lp305
sbassI28
(dp306
g15
(lp307
g8
(g17
g10
NtRp308
(dp309
g20
g8
(g21
g10
NtRp310
(dp311
g24
g104
sg26
I1
sg27
F-0.65000000000000002
sg28
S'A'
sg29
S'O'
sg30
g31
sg32
g105
sg34
F15.9994
sg35
g106
sbsg37
g38
(g39
(I0
tS'b'
tRp312
(I1
(I3
tg42
I00
S'`\xa9Hch\xc5\x02@\xc8\x17\xbag\xe8\xc5\x1f@y\xd6I@=\x96\xef\xbf'
tbsg43
(lp313
sbassI29
(dp314
g15
(lp315
g8
(g17
g10
NtRp316
(dp317
g20
g8
(g21
g10
NtRp318
(dp319
g24
g115
sg26
I1
sg27
F0.14999999999999999
sg28
S'A'
sg29
S'C'
sg30
g31
sg32
g116
sg34
F12.0107
sg35
g117
sbsg37
g38
(g39
(I0
tS'b'
tRp320
(I1
(I3
tg42
I00
S'\x00d\x8d\xda\x81I\xc7?\xf6u\xf5\xbf\xc1\xa9 @`g\x14\xc3]~\xb6\xbf'
tbsg43
(lp321
sbassI30
(dp322
g15
(lp323
g8
(g17
g10
NtRp324
(dp325
g20
g8
(g21
g10
NtRp326
(dp327
g24
g126
sg26
I1
sg27
F0.10000000000000001
sg28
S'A'
sg29
S'H'
sg30
g31
sg32
S'H'
sg34
F1.0079
sg35
g127
sbsg37
g38
(g39
(I0
tS'b'
tRp328
(I1
(I3
tg42
I00
S'\x00\xfc\x9fg\xca\x13\xa2?\xf6\x8a\x06J\xfd%!@W\xbc?\x0be\x94\xf2\xbf'
tbsg43
(lp329
sbassI31
(dp330
g15
(lp331
g8
(g17
g10
NtRp332
(dp333
g20
g8
(g21
g10
NtRp334
(dp335
g24
g136
sg26
I1
sg27
F-0.59999999999999998
sg28
S'A'
sg29
S'O'
sg30
g31
sg32
g137
sg34
F15.9994
sg35
g138
sbsg37
g38
(g39
(I0
tS'b'
tRp336
(I1
(I3
tg42
I00
S'\x80\x13 Mr\xf7\xb2?\xa6M\xc3\x0e\xb4\x15#@\xe6<+\x9b\x10\xf2\xe6?'
tbsg43
(lp337
sbassI32
(dp338
g15
(lp339
g8
(g17
g10
NtRp340
(dp341
g20
g8
(g21
g10
NtRp342
(dp343
g24
g147
sg26
I1
sg27
F0.10000000000000001
sg28
S'A'
sg29
S'C'
sg30
g31
sg32
g148
sg34
F12.0107
sg35
g149
sbsg37
g38
(g39
(I0
tS'b'
tRp344
(I1
(I3
tg42
I00
S'\xe0\x04\xf5\x1a\xf4&\xeb\xbfh\xf3\xfa\xe8\xef6\x1d@\xea\x14Hb#\x9b\xd8?'
tbsg43
(lp345
sbassI33
(dp346
g15
(lp347
g8
(g17
g10
NtRp348
(dp349
g20
g8
(g21
g10
NtRp350
(dp351
g24
g158
sg26
I1
sg27
F0.10000000000000001
sg28
S'A'
sg29
S'H'
sg30
g31
sg32
S'H'
sg34
F1.0079
sg35
g159
sbsg37
g38
(g39
(I0
tS'b'
tRp352
(I1
(I3
tg42
I00
S"@}\xca\x82\xb0\x0b\xec\xbf(u\xce\x86\x0b\xeb\x1c@Ir\x9c'\xcc\xe2\xf7?"
tbsg43
(lp353
sbassI34
(dp354
g15
(lp355
g8
(g17
g10
NtRp356
(dp357
g20
g8
(g21
g10
NtRp358
(dp359
g24
g168
sg26
I1
sg27
F-0.40000000000000002
sg28
S'A'
sg29
S'O'
sg30
g31
sg32
g169
sg34
F15.9994
sg35
g170
sbsg37
g38
(g39
(I0
tS'b'
tRp360
(I1
(I3
tg42
I00
S'\xe0\xd9\x9e\x94"\x1e\xdd\xbf\x88;\x97S@+\x18@J\x81\x0e\xc1\x80\x85\xc6\xbf'
tbsg43
(lp361
sbassI35
(dp362
g15
(lp363
g8
(g17
g10
NtRp364
(dp365
g20
g8
(g21
g10
NtRp366
(dp367
g24
g179
sg26
I1
sg27
F0.050000000000000003
sg28
S'A'
sg29
S'C'
sg30
g31
sg32
g180
sg34
F12.0107
sg35
g181
sbsg37
g38
(g39
(I0
tS'b'
tRp368
(I1
(I3
tg42
I00
S'\xd8\xe5`&G\xbd\x01\xc0h_\x87\x84l\xd0\x1d@\xde\x02] \x94\x93\xc6\xbf'
tbsg43
(lp369
sbassI36
(dp370
g15
(lp371
g8
(g17
g10
NtRp372
(dp373
g20
g8
(g21
g10
NtRp374
(dp375
g24
g190
sg26
I1
sg27
F-0.65000000000000002
sg28
S'A'
sg29
S'O'
sg30
g31
sg32
g191
sg34
F15.9994
sg35
g192
sbsg37
g38
(g39
(I0
tS'b'
tRp376
(I1
(I3
tg42
I00
S'\x181\x81p\xee\xb6\x04\xc0\xc8e\xf0\x14\x96\xae\x18@\xf2\xa5\xd1-b\x1d\xe5\xbf'
tbsg43
(lp377
sbassI37
(dp378
g15
(lp379
g8
(g17
g10
NtRp380
(dp381
g20
g8
(g21
g10
NtRp382
(dp383
g24
g201
sg26
I1
sg27
F0.10000000000000001
sg28
S'A'
sg29
S'H'
sg30
g31
sg32
S'H'
sg34
F1.0079
sg35
g202
sbsg37
g38
(g39
(I0
tS'b'
tRp384
(I1
(I3
tg42
I00
S'@\xf9\xd0\xd2Bj\xc1?\x084\xdb\x90\xc9O\x15@\n\xfe\xb4\xb6bx\xfb?'
tbsg43
(lp385
sbassI38
(dp386
g15
(lp387
g8
(g17
g10
NtRp388
(dp389
g20
g8
(g21
g10
NtRp390
(dp391
g24
g211
sg26
I1
sg27
F0.40000000000000002
sg28
S'A'
sg29
S'H'
sg30
g31
sg32
g212
sg34
F1.0079
sg35
g213
sbsg37
g38
(g39
(I0
tS'b'
tRp392
(I1
(I3
tg42
I00
S'\x08\xcc\xc4\x01\x86n\x01@HS\x12\x89U\xb0\x13@\x1c\xe3\xe8,\xab\x8f\xe0\xbf'
tbsg43
(lp393
sbassI39
(dp394
g15
(lp395
g8
(g17
g10
NtRp396
(dp397
g20
g8
(g21
g10
NtRp398
(dp399
g24
g222
sg26
I1
sg27
F0.40000000000000002
sg28
S'A'
sg29
S'H'
sg30
g31
sg32
g223
sg34
F1.0079
sg35
g224
sbsg37
g38
(g39
(I0
tS'b'
tRp400
(I1
(I3
tg42
I00
S'\xd0\x83\xba\xa5\xb6|\x06@(\x1c\xba\xd3qf\x1c@\xde\x06\xe6\x8bh\xdd\xf0\xbf'
tbsg43
(lp401
sbassI40
(dp402
g15
(lp403
g8
(g17
g10
NtRp404
(dp405
g20
g8
(g21
g10
NtRp406
(dp407
g24
g233
sg26
I1
sg27
F0.10000000000000001
sg28
S'A'
sg29
S'H'
sg30
g31
sg32
S'H'
sg34
F1.0079
sg35
g234
sbsg37
g38
(g39
(I0
tS'b'
tRp408
(I1
(I3
tg42
I00
S'x\xa0\n\xe97\xe5\x01\xc0\xc6\x8d\xa9\x8c\x86[ @\xa8\x97\x0e"vL\xf0\xbf'
tbsg43
(lp409
sbassI41
(dp410
g15
(lp411
g8
(g17
g10
NtRp412
(dp413
g20
g8
(g21
g10
NtRp414
(dp415
g24
g243
sg26
I1
sg27
F0.10000000000000001
sg28
S'A'
sg29
S'H'
sg30
g31
sg32
S'H'
sg34
F1.0079
sg35
g244
sbsg37
g38
(g39
(I0
tS'b'
tRp416
(I1
(I3
tg42
I00
S' \xfdB\xed\x9c|\x07\xc0\xc8\xcc\x0eLD \x1f@f%\xf8#\xb5o\xe3?'
tbsg43
(lp417
sbassI42
(dp418
g15
(lp419
g8
(g17
g10
NtRp420
(dp421
g20
g8
(g21
g10
NtRp422
(dp423
g24
g253
sg26
I1
sg27
F0.40000000000000002
sg28
S'A'
sg29
S'H'
sg30
g31
sg32
g254
sg34
F1.0079
sg35
g255
sbsg37
g38
(g39
(I0
tS'b'
tRp424
(I1
(I3
tg42
I00
S'\x80\xab\xf4o\xe2O\xfc\xbf\x88\xd4\x0f\x00\xec\x1d\x17@\xf5\x97|\xde\xe0\r\xef\xbf'
tbsg43
(lp425
sbassI43
(dp426
g15
(lp427
g8
(g17
g10
NtRp428
(dp429
g20
g8
(g21
g10
NtRp430
(dp431
g24
S'H'
sg26
I1
sg27
F0.10000000000000001
sg28
S'A'
sg29
S'H'
sg30
S'ELT'
p432
sg32
S'H'
sg34
F1.0079400000000001
sg35
S'H'
sbsg37
g38
(g39
(I0
tS'b'
tRp433
(I1
(I3
tg42
I00
S'\x00\xd8\xdb%\xd9\x05\xa1?R\xfb\x987\x06]%@\x92\xabJQw5\xb9?'
tbsg43
(lp434
sbasssS'atomTypesTable'
p435
(dp436
sS'solvent'
p437
I00
sS'matrix'
p438
(lp439
(lp440
I1
aI0
aI0
aI0
aa(lp441
I0
aI1
aI0
aI0
aa(lp442
I0
aI0
aI1
aI0
aa(lp443
I0
aI0
aI0
aI1
aasS'graph'
p444
(dp445
sg32
S'Cellulose_e'
p446
sS'edge'
p447
(dp448
I1
(dp449
I16
(dp450
sI2
(dp451
sI13
(dp452
ssI2
(dp453
I1
g451
sI3
(dp454
sI4
(dp455
sI5
(dp456
ssI3
(dp457
I2
g454
ssI4
(dp458
I17
(dp459
sI2
g455
ssI5
(dp460
I8
(dp461
sI2
g456
sI6
(dp462
sI7
(dp463
ssI6
(dp464
I5
g462
ssI7
(dp465
I18
(dp466
sI5
g463
ssI8
(dp467
I9
(dp468
sI10
(dp469
sI11
(dp470
sI5
g461
ssI9
(dp471
I8
g468
ssI10
(dp472
I8
g469
sI22
(dp473
ssI11
(dp474
I8
g470
sI12
(dp475
sI13
(dp476
sI14
(dp477
ssI12
(dp478
I11
g475
ssI13
(dp479
I1
g452
sI11
g476
ssI14
(dp480
I11
g477
sI19
(dp481
sI20
(dp482
sI15
(dp483
ssI15
(dp484
I21
(dp485
sI14
g483
ssI16
(dp486
I1
g450
ssI17
(dp487
I4
g459
ssI18
(dp488
I7
g466
ssI19
(dp489
I14
g481
ssI20
(dp490
I14
g482
ssI21
(dp491
I15
g485
ssI22
(dp492
I34
(dp493
sI23
(dp494
sI10
g473
sI37
(dp495
ssI23
(dp496
I24
(dp497
sI25
(dp498
sI26
(dp499
sI22
g494
ssI24
(dp500
I23
g497
ssI25
(dp501
I38
(dp502
sI23
g498
ssI26
(dp503
I27
(dp504
sI28
(dp505
sI29
(dp506
sI23
g499
ssI27
(dp507
I26
g504
ssI28
(dp508
I26
g505
sI39
(dp509
ssI29
(dp510
I32
(dp511
sI26
g506
sI30
(dp512
sI31
(dp513
ssI30
(dp514
I29
g512
ssI31
(dp515
I43
(dp516
sI29
g513
ssI32
(dp517
I33
(dp518
sI34
(dp519
sI35
(dp520
sI29
g511
ssI33
(dp521
I32
g518
ssI34
(dp522
I32
g519
sI22
g493
ssI35
(dp523
I32
g520
sI40
(dp524
sI36
(dp525
sI41
(dp526
ssI36
(dp527
I42
(dp528
sI35
g525
ssI37
(dp529
I22
g495
ssI38
(dp530
I25
g502
ssI39
(dp531
I28
g509
ssI40
(dp532
I35
g524
ssI41
(dp533
I35
g526
ssI42
(dp534
I36
g528
ssI43
(dp535
I31
g516
sssS'forceField'
p536
g8
(clib.chemicalGraph.molecule.ForceField
ForceField
p537
g10
NtRp538
(dp539
S'_MASS'
p540
(dp541
sS'_IMPROPER'
p542
(dp543
sS'_HBONDS'
p544
(dp545
sS'filename'
p546
S'/home/jse/inv/Cuchifritos/bazaar/Wolffia/data/forceFields/Cellulose.prm'
p547
sS'_BONDS'
p548
(dp549
(S'C400'
p550
S'C500'
p551
tp552
(lp553
F222.5
aF1.5
as(S'C100'
p554
S'H180'
p555
tp556
(lp557
F309
aF1.111
as(g554
S'O500'
p558
tp559
(lp560
F428
aF1.4199999999999999
as(g550
S'O400'
p561
tp562
(lp563
F428
aF1.4199999999999999
as(S'C200'
p564
S'C300'
p565
tp566
(lp567
F222.5
aF1.5
as(S'C600'
p568
S'H110'
p569
tp570
(lp571
F309
aF1.111
as(S'H210'
p572
S'O300'
p573
tp574
(lp575
F545
aF0.95999999999999996
as(g564
S'O200'
p576
tp577
(lp578
F428
aF1.4199999999999999
as(g565
g573
tp579
(lp580
F428
aF1.4199999999999999
as(g565
S'H150'
p581
tp582
(lp583
F309
aF1.111
as(g554
g564
tp584
(lp585
F222.5
aF1.5
as(g568
S'H120'
p586
tp587
(lp588
F309
aF1.111
as(g565
g550
tp589
(lp590
F222.5
aF1.5
as(g554
g561
tp591
(lp592
F428
aF1.4199999999999999
as(g551
S'H170'
p593
tp594
(lp595
F309
aF1.111
as(S'H190'
p596
g576
tp597
(lp598
F545
aF0.95999999999999996
as(S'H'
g136
tp599
(lp600
F545
aF0.95999999999999996
as(S'H130'
p601
S'O600'
p602
tp603
(lp604
F545
aF0.95999999999999996
as(g564
S'H140'
p605
tp606
(lp607
F309
aF1.111
as(g551
g568
tp608
(lp609
F222.5
aF1.5
as(g551
g558
tp610
(lp611
F428
aF1.4199999999999999
as(g550
S'H160'
p612
tp613
(lp614
F309
aF1.111
as(g568
g602
tp615
(lp616
F428
aF1.4199999999999999
assS'_ANGLES'
p617
(dp618
(g569
g568
g602
tp619
(lp620
F78.195999999999998
aF108.89
as(g550
g551
g568
tp621
(lp622
F91.787999999999997
aF111
as(g564
g576
g596
tp623
(lp624
F119.044
aF106
as(g551
g568
g586
tp625
(lp626
F79.373999999999995
aF110.09999999999999
as(g586
g568
g602
tp627
(lp628
F78.195999999999998
aF108.89
as(g568
g602
g601
tp629
(lp630
F119.044
aF106
as(g565
g564
g576
tp631
(lp632
F113.39100000000001
aF110.09999999999999
as(g565
g550
g551
tp633
(lp634
F91.787999999999997
aF111
as(g565
g564
g605
tp635
(lp636
F79.373999999999995
aF110.09999999999999
as(g554
g564
g605
tp637
(lp638
F79.373999999999995
aF110.09999999999999
as(g554
g564
g576
tp639
(lp640
F113.39100000000001
aF110.09999999999999
as(g550
g551
g558
tp641
(lp642
F107.179
aF105
as(g551
g550
g561
tp643
(lp644
F107.179
aF105
as(g564
g565
g581
tp645
(lp646
F79.373999999999995
aF110.09999999999999
as(g551
g568
g569
tp647
(lp648
F79.373999999999995
aF110.09999999999999
as(g569
g568
g586
tp649
(lp650
F78.299000000000007
aF109
as(g564
g554
g561
tp651
(lp652
F107.179
aF105
as(g593
g551
g558
tp653
(lp654
F76.739999999999995
aF107.23999999999999
as(g561
g554
g558
tp655
(lp656
F214.084
aF111.55
as(g554
g561
g550
tp657
(lp658
F131.929
aF107.5
as(g554
g558
g551
tp659
(lp660
F131.929
aF107.5
as(g551
g568
g602
tp661
(lp662
F113.39100000000001
aF110.09999999999999
as(g551
g550
g612
tp663
(lp664
F79.373999999999995
aF110.09999999999999
as(g550
g551
g593
tp665
(lp666
F79.373999999999995
aF110.09999999999999
as(g550
g565
g581
tp667
(lp668
F79.373999999999995
aF110.09999999999999
as(g565
g573
g572
tp669
(lp670
F119.044
aF106
as(g564
g565
g550
tp671
(lp672
F91.787999999999997
aF111
as(g555
g554
g558
tp673
(lp674
F76.739999999999995
aF107.23999999999999
as(g564
g565
g573
tp675
(lp676
F113.39100000000001
aF110.09999999999999
as(g564
g554
g555
tp677
(lp678
F79.373999999999995
aF110.09999999999999
as(g568
g551
g558
tp679
(lp680
F107.179
aF105
as(g605
g564
g576
tp681
(lp682
F78.195999999999998
aF108.89
as(g555
g554
g561
tp683
(lp684
F76.739999999999995
aF107.23999999999999
as(g550
g565
g573
tp685
(lp686
F113.39100000000001
aF110.09999999999999
as(g554
g564
g565
tp687
(lp688
F91.787999999999997
aF111
as(g565
g550
g561
tp689
(lp690
F107.179
aF105
as(g564
g554
g558
tp691
(lp692
F107.179
aF105
as(g565
g550
g612
tp693
(lp694
F79.373999999999995
aF110.09999999999999
as(g612
g550
g561
tp695
(lp696
F76.739999999999995
aF107.23999999999999
as(g581
g565
g573
tp697
(lp698
F78.195999999999998
aF108.89
as(g568
g551
g593
tp699
(lp700
F79.373999999999995
aF110.09999999999999
assS'_NONBONDED'
p701
(dp702
g573
(lp703
F-0.19209999999999999
aF1.7649999999999999
aF-0.65000000000000002
asg568
(lp704
F-0.032000000000000001
aF2
aF0.050000000000000003
asg602
(lp705
F-0.19209999999999999
aF1.7649999999999999
aF-0.65000000000000002
asg605
(lp706
F-0.044999999999999998
aF1.3400000000000001
aF0.10000000000000001
asg550
(lp707
F-0.032000000000000001
aF2
aF0.14999999999999999
asg586
(lp708
F-0.044999999999999998
aF1.3400000000000001
aF0.10000000000000001
asg564
(lp709
F-0.032000000000000001
aF2
aF0.14999999999999999
asg551
(lp710
F-0.032000000000000001
aF2
aF0.10000000000000001
asg612
(lp711
F-0.044999999999999998
aF1.3400000000000001
aF0.10000000000000001
asg555
(lp712
F-0.044999999999999998
aF1.3400000000000001
aF0.10000000000000001
asg561
(lp713
F-0.19209999999999999
aF1.7649999999999999
aF-0.5
asS'H'
(lp714
F-0.029999999999999999
aF1.3582000000000001
aF0
asg593
(lp715
F-0.044999999999999998
aF1.3400000000000001
aF0.10000000000000001
asg572
(lp716
F-0.045999999999999999
aF0.22450000000000001
aF0.40000000000000002
asg558
(lp717
F-0.19209999999999999
aF1.7649999999999999
aF-0.40000000000000002
asg581
(lp718
F-0.044999999999999998
aF1.3400000000000001
aF0.10000000000000001
asg569
(lp719
F-0.044999999999999998
aF1.3400000000000001
aF0.10000000000000001
asg601
(lp720
F-0.045999999999999999
aF0.22450000000000001
aF0.40000000000000002
asg565
(lp721
F-0.032000000000000001
aF2
aF0.14999999999999999
asg596
(lp722
F-0.045999999999999999
aF0.22450000000000001
aF0.40000000000000002
asg576
(lp723
F-0.19209999999999999
aF1.7649999999999999
aF-0.65000000000000002
asg554
(lp724
F-0.032000000000000001
aF2
aF0.34999999999999998
assS'molname'
p725
S'Cellulose(2)'
p726
sS'_DIHEDRALS'
p727
(dp728
(g554
g561
g550
g551
tp729
(lp730
F0.59999999999999998
aI1
aF180
as(g551
g558
g554
g555
tp731
(lp732
F0.10000000000000001
aI3
aF180
as(g551
g550
g565
g581
tp733
(lp734
F0.14999999999999999
aI3
aF180
as(g605
g564
g554
g558
tp735
(lp736
F0.14999999999999999
aI3
aF180
as(g573
g565
g550
g561
tp737
(lp738
F-1.8400000000000001
aI1
aF180
as(g550
g551
g568
g602
tp739
(lp740
F0.14999999999999999
aI3
aF180
as(g551
g558
g554
g561
tp741
(lp742
F-1.1499999999999999
aI1
aF180
as(g581
g565
g564
g576
tp743
(lp744
F0.14999999999999999
aI3
aF180
as(g581
g565
g550
g612
tp745
(lp746
F0.14999999999999999
aI3
aF180
as(g564
g554
g558
g551
tp747
(lp748
F0.59999999999999998
aI1
aF180
as(g565
g564
g554
g555
tp749
(lp750
F0.14999999999999999
aI3
aF180
as(g568
g551
g550
g561
tp751
(lp752
F0.14999999999999999
aI3
aF180
as(g554
g564
g565
g573
tp753
(lp754
F0.82999999999999996
aI1
aF180
as(g576
g564
g565
g573
tp755
(lp756
F-1.6299999999999999
aI1
aF180
as(g605
g564
g576
g596
tp757
(lp758
F0.14000000000000001
aI3
aF180
as(g605
g564
g565
g581
tp759
(lp760
F0.14999999999999999
aI3
aF180
as(g550
g565
g573
g572
tp761
(lp762
F0.14000000000000001
aI3
aF180
as(g593
g551
g550
g561
tp763
(lp764
F0.14999999999999999
aI3
aF180
as(g554
g564
g565
g581
tp765
(lp766
F0.14999999999999999
aI3
aF180
as(g569
g568
g602
g601
tp767
(lp768
F0.14000000000000001
aI3
aF180
as(g605
g564
g554
g561
tp769
(lp770
F0.14999999999999999
aI3
aF180
as(g564
g565
g550
g612
tp771
(lp772
F0.14999999999999999
aI3
aF180
as(g576
g564
g554
g558
tp773
(lp774
F-1.8400000000000001
aI1
aF180
as(g565
g550
g551
g558
tp775
(lp776
F0.14999999999999999
aI3
aF180
as(g554
g564
g576
g596
tp777
(lp778
F0.14000000000000001
aI3
aF180
as(g550
g551
g568
g586
tp779
(lp780
F0.14999999999999999
aI3
aF180
as(g565
g550
g551
g568
tp781
(lp782
F0.14999999999999999
aI3
aF180
as(g568
g551
g550
g612
tp783
(lp784
F0.14999999999999999
aI3
aF180
as(g550
g565
g564
g576
tp785
(lp786
F0.82999999999999996
aI1
aF180
as(g565
g564
g576
g596
tp787
(lp788
F0.14000000000000001
aI3
aF180
as(g555
g554
g564
g576
tp789
(lp790
F0.14999999999999999
aI3
aF180
as(g564
g565
g573
g572
tp791
(lp792
F0.14000000000000001
aI3
aF180
as(g561
g550
g551
g558
tp793
(lp794
F0.14999999999999999
aI3
aF180
as(g586
g568
g602
g601
tp795
(lp796
F0.14000000000000001
aI3
aF180
as(g551
g568
g602
g601
tp797
(lp798
F0.14000000000000001
aI3
aF180
as(g565
g550
g551
g593
tp799
(lp800
F0.14999999999999999
aI3
aF180
as(g25
g136
g115
g83
tp801
(lp802
F0.59999999999999998
aF1
aF180
as(g550
g561
g554
g555
tp803
(lp804
F0.14000000000000001
aI3
aF180
as(g550
g565
g564
g605
tp805
(lp806
F0.14999999999999999
aI3
aF180
as(g612
g550
g551
g593
tp807
(lp808
F0.14999999999999999
aI3
aF180
as(g550
g561
g554
g558
tp809
(lp810
F-1.1499999999999999
aI1
aF180
as(g551
g550
g565
g573
tp811
(lp812
F0.82999999999999996
aI1
aF180
as(g581
g565
g550
g561
tp813
(lp814
F0.14999999999999999
aI3
aF180
as(g576
g564
g554
g561
tp815
(lp816
F-1.8400000000000001
aI1
aF180
as(g569
g568
g551
g593
tp817
(lp818
F0
aI0
aF0
as(g569
g568
g551
g558
tp819
(lp820
F0.14999999999999999
aI3
aF180
as(g558
g551
g568
g602
tp821
(lp822
F-1.8400000000000001
aI1
aF180
as(g605
g564
g565
g573
tp823
(lp824
F0.14999999999999999
aI3
aF180
as(g564
g565
g550
g561
tp825
(lp826
F0.14999999999999999
aI3
aF180
as(g586
g568
g551
g593
tp827
(lp828
F0
aI0
aF0
as(g550
g551
g568
g569
tp829
(lp830
F0.14999999999999999
aI3
aF180
as(g554
g558
g551
g568
tp831
(lp832
F0.59999999999999998
aI1
aF180
as(g564
g565
g550
g551
tp833
(lp834
F0.14999999999999999
aI3
aF180
as(g593
g551
g568
g602
tp835
(lp836
F0.14999999999999999
aI3
aF180
as(g564
g554
g561
g550
tp837
(lp838
F0.59999999999999998
aI1
aF180
as(g565
g564
g554
g561
tp839
(lp840
F0.14999999999999999
aI3
aF180
as(g586
g568
g551
g558
tp841
(lp842
F0.14999999999999999
aI3
aF180
as(g612
g550
g551
g558
tp843
(lp844
F0.14999999999999999
aI3
aF180
as(g565
g564
g554
g558
tp845
(lp846
F0.14999999999999999
aI3
aF180
as(g554
g564
g565
g550
tp847
(lp848
F0.14999999999999999
aI3
aF180
as(g581
g565
g573
g572
tp849
(lp850
F0.14000000000000001
aI3
aF180
as(g605
g564
g554
g555
tp851
(lp852
F0.14999999999999999
aI3
aF180
as(g612
g550
g565
g573
tp853
(lp854
F0.14999999999999999
aI3
aF180
assbsS'adj'
p855
g448
sbassS'CelluloseB_1_1'
p856
(dp857
g6
(lp858
g8
(g9
g10
NtRp859
(dp860
g2
(dp861
I1
(dp862
S'attrs'
p863
(lp864
g8
(g17
g10
NtRp865
(dp866
g20
g8
(g21
g10
NtRp867
(dp868
g24
S'C100'
p869
sg26
I1
sg27
F0.34999999999999998
sg28
S'A'
sg29
S'C'
sg30
S'CEL'
p870
sg32
S'C3'
p871
sg34
F12.0107
sg35
S'Carbon'
p872
sbsg37
g38
(g39
(I0
tS'b'
tRp873
(I1
(I3
tg41
(S'f8'
I0
I1
tRp874
(I3
S'<'
NNNI-1
I-1
I0
tbI00
S'\xc2\xfb\xab8\x83R\xd2?\xd6\xaf9a\xb7t\xd7?\xa0\xfb\x84\xd0\xa2c|\xbf'
tbsg43
(lp875
sbassI2
(dp876
g863
(lp877
g8
(g17
g10
NtRp878
(dp879
g20
g8
(g21
g10
NtRp880
(dp881
g24
S'C200'
p882
sg26
I1
sg27
F0.14999999999999999
sg28
S'A'
sg29
S'C'
sg30
g870
sg32
S'C3'
p883
sg34
F12.0107
sg35
S'Carbon'
p884
sbsg37
g38
(g39
(I0
tS'b'
tRp885
(I1
(I3
tg874
I00
S'\x9f\xc5\x17\x9fac\xed\xbf\xf6\xf5\x12\x1a\xa0]\xf4?\\\xa7\xb7~\xf7\xfd\xaf?'
tbsg43
(lp886
sbassI3
(dp887
g863
(lp888
g8
(g17
g10
NtRp889
(dp890
g20
g8
(g21
g10
NtRp891
(dp892
g24
S'H140'
p893
sg26
I1
sg27
F0.10000000000000001
sg28
S'A'
sg29
S'H'
sg30
g870
sg32
S'H'
sg34
F1.0079
sg35
S'Hydrogen'
p894
sbsg37
g38
(g39
(I0
tS'b'
tRp895
(I1
(I3
tg874
I00
S'\xf7\x0e\xa8\x0eya\xf7\xbf6&\\\xaa\x98\x99\xf3?\x81\xcb\\wW\x0c\xed\xbf'
tbsg43
(lp896
sbassI4
(dp897
g863
(lp898
g8
(g17
g10
NtRp899
(dp900
g20
g8
(g21
g10
NtRp901
(dp902
g24
S'O200'
p903
sg26
I1
sg27
F-0.65000000000000002
sg28
S'A'
sg29
S'O'
sg30
g870
sg32
S'O3'
p904
sg34
F15.9994
sg35
S'Oxygen'
p905
sbsg37
g38
(g39
(I0
tS'b'
tRp906
(I1
(I3
tg874
I00
S'\xdf\x85p\x83x\xb3\xfb\xbf+\r\xbfc$y\xe6?\xcc\x92\x18\xbe\xcc\x07\xf1?'
tbsg43
(lp907
sbassI8
(dp908
g863
(lp909
g8
(g17
g10
NtRp910
(dp911
g20
g8
(g21
g10
NtRp912
(dp913
g24
S'C400'
p914
sg26
I1
sg27
F0.14999999999999999
sg28
S'A'
sg29
S'C'
sg30
g870
sg32
S'C2'
p915
sg34
F12.0107
sg35
S'Carbon'
p916
sbsg37
g38
(g39
(I0
tS'b'
tRp917
(I1
(I3
tg874
I00
S'\x81\xce\x9a\xc9H#\xe4?\xc7B\x14;\xad\xd7\t@\x1d\xf9y\x0c@O\xe8?'
tbsg43
(lp918
sbassI9
(dp919
g863
(lp920
g8
(g17
g10
NtRp921
(dp922
g20
g8
(g21
g10
NtRp923
(dp924
g24
S'H160'
p925
sg26
I1
sg27
F0.10000000000000001
sg28
S'A'
sg29
S'H'
sg30
g870
sg32
S'H'
sg34
F1.0079
sg35
S'Hydrogen'
p926
sbsg37
g38
(g39
(I0
tS'b'
tRp927
(I1
(I3
tg874
I00
S"\xa1'\xc4\x99l\xd4\xe8?\xd7\x96Xc\x9b\xc8\x0b@_rK5\x1fT\xfd?"
tbsg43
(lp928
sbassI10
(dp929
g863
(lp930
g8
(g17
g10
NtRp931
(dp932
g20
g8
(g21
g10
NtRp933
(dp934
g24
S'O400'
p935
sg26
I1
sg27
F-0.59999999999999998
sg28
S'A'
sg29
S'O'
sg30
g870
sg32
S'O2'
p936
sg34
F15.9994
sg35
S'Oxygen'
p937
sbsg37
g38
(g39
(I0
tS'b'
tRp938
(I1
(I3
tg874
I00
S'\x01%\x9a\xf6\xba\x96\xe7?\xd1\xd0%;\xbb\xc3\x11@l\t=q\xc4)\xa7\xbf'
tbsg43
(lp939
sbassI11
(dp940
g863
(lp941
g8
(g17
g10
NtRp942
(dp943
g20
g8
(g21
g10
NtRp944
(dp945
g24
S'C500'
p946
sg26
I1
sg27
F0.10000000000000001
sg28
S'A'
sg29
S'C'
sg30
g870
sg32
S'C2'
p947
sg34
F12.0107
sg35
S'Carbon'
p948
sbsg37
g38
(g39
(I0
tS'b'
tRp949
(I1
(I3
tg874
I00
S'1\x96\x99\xadN\x8e\xfa?\xd7Q4\r\x86\x9e\x01@\x80\xc3\xe6E\xc5c\xd2?'
tbsg43
(lp950
sbassI12
(dp951
g863
(lp952
g8
(g17
g10
NtRp953
(dp954
g20
g8
(g21
g10
NtRp955
(dp956
g24
S'H170'
p957
sg26
I1
sg27
F0.10000000000000001
sg28
S'A'
sg29
S'H'
sg30
g870
sg32
S'H'
sg34
F1.0079
sg35
S'Hydrogen'
p958
sbsg37
g38
(g39
(I0
tS'b'
tRp959
(I1
(I3
tg874
I00
S'aR\x84\xe1\xac\x00\xfb?gU\xdbH\xbd\x06\x01@ox!\xfb#F\xea\xbf'
tbsg43
(lp960
sbassI13
(dp961
g863
(lp962
g8
(g17
g10
NtRp963
(dp964
g20
g8
(g21
g10
NtRp965
(dp966
g24
S'O500'
p967
sg26
I1
sg27
F-0.40000000000000002
sg28
S'A'
sg29
S'O'
sg30
g870
sg32
S'O2'
p968
sg34
F15.9994
sg35
S'Oxygen'
p969
sbsg37
g38
(g39
(I0
tS'b'
tRp970
(I1
(I3
tg874
I00
S'1\xcaFE]B\xf4?\xeb\x87\xb3\x89\x9b\x1c\xee?\x87\x0c[\x84\xd4 \xeb?'
tbsg43
(lp971
sbassI14
(dp972
g863
(lp973
g8
(g17
g10
NtRp974
(dp975
g20
g8
(g21
g10
NtRp976
(dp977
g24
S'C600'
p978
sg26
I1
sg27
F0.050000000000000003
sg28
S'A'
sg29
S'C'
sg30
g870
sg32
S'C3'
p979
sg34
F12.0107
sg35
S'Carbon'
p980
sbsg37
g38
(g39
(I0
tS'b'
tRp981
(I1
(I3
tg874
I00
S'\xc0opv\xb1:\x08@\xd7)MD\x7f\xd1\x02@\xcf\xac.\\Y$\xeb?'
tbsg43
(lp982
sbassI15
(dp983
g863
(lp984
g8
(g17
g10
NtRp985
(dp986
g20
g8
(g21
g10
NtRp987
(dp988
g24
S'O600'
p989
sg26
I1
sg27
F-0.65000000000000002
sg28
S'A'
sg29
S'O'
sg30
g870
sg32
S'O3'
p990
sg34
F15.9994
sg35
S'Oxygen'
p991
sbsg37
g38
(g39
(I0
tS'b'
tRp992
(I1
(I3
tg874
I00
S'\xf8\xba\x90\xc0X4\x0b@Fm>\xca\xa4\x1b\xf1?\x15\x89\xf4@kN\xf5?'
tbsg43
(lp993
sbassI16
(dp994
g863
(lp995
g8
(g17
g10
NtRp996
(dp997
g20
g8
(g21
g10
NtRp998
(dp999
g24
S'H180'
p1000
sg26
I1
sg27
F0.10000000000000001
sg28
S'A'
sg29
S'H'
sg30
g870
sg32
S'H'
sg34
F1.0079
sg35
S'Hydrogen'
p1001
sbsg37
g38
(g39
(I0
tS'b'
tRp1002
(I1
(I3
tg874
I00
S'!\xe9\x89\x8b\x18\x9b\xe5?\xad2M\xcf\x95\x03\xcd?\xfeG\xa9\x8c\xa8\xb8\xf0\xbf'
tbsg43
(lp1003
sbassI17
(dp1004
g863
(lp1005
g8
(g17
g10
NtRp1006
(dp1007
g20
g8
(g21
g10
NtRp1008
(dp1009
g24
S'H190'
p1010
sg26
I1
sg27
F0.40000000000000002
sg28
S'A'
sg29
S'H'
sg30
g870
sg32
S'HO'
p1011
sg34
F1.0079
sg35
S'Hydrogen'
p1012
sbsg37
g38
(g39
(I0
tS'b'
tRp1013
(I1
(I3
tg874
I00
S"_\x84jc7\xe2\xf5\xbfS\xe5\xce)\xeb\xea\xc6\xbf\x96'\x80\xc0\x8f\x07\xf3?"
tbsg43
(lp1014
sbassI19
(dp1015
g863
(lp1016
g8
(g17
g10
NtRp1017
(dp1018
g20
g8
(g21
g10
NtRp1019
(dp1020
g24
S'H110'
p1021
sg26
I1
sg27
F0.10000000000000001
sg28
S'A'
sg29
S'H'
sg30
g870
sg32
S'H'
sg34
F1.0079
sg35
S'Hydrogen'
p1022
sbsg37
g38
(g39
(I0
tS'b'
tRp1023
(I1
(I3
tg874
I00
S'X*\x1a9\xa2b\x08@\xf7\xa1\xe4m\xc0\x9e\x08@\xbbM\x1aL0\x0c\xfb?'
tbsg43
(lp1024
sbassI20
(dp1025
g863
(lp1026
g8
(g17
g10
NtRp1027
(dp1028
g20
g8
(g21
g10
NtRp1029
(dp1030
g24
S'H120'
p1031
sg26
I1
sg27
F0.10000000000000001
sg28
S'A'
sg29
S'H'
sg30
g870
sg32
S'H'
sg34
F1.0079
sg35
S'Hydrogen'
p1032
sbsg37
g38
(g39
(I0
tS'b'
tRp1033
(I1
(I3
tg874
I00
S'\xf8\x86R=\x07\xfa\r@\x97\x04\\\xd3.q\x05@\xd84\xfa\x80\xf9}\xb0?'
tbsg43
(lp1034
sbassI21
(dp1035
g863
(lp1036
g8
(g17
g10
NtRp1037
(dp1038
g20
g8
(g21
g10
NtRp1039
(dp1040
g24
S'H130'
p1041
sg26
I1
sg27
F0.40000000000000002
sg28
S'A'
sg29
S'H'
sg30
g870
sg32
S'HO'
p1042
sg34
F1.0079
sg35
S'Hydrogen'
p1043
sbsg37
g38
(g39
(I0
tS'b'
tRp1044
(I1
(I3
tg874
I00
S'\xb0\xdf\t\x88[\xa5\x04@+Px\xed\xf8\xb1\xe5?\x12\x02J\x99\xaaF\xfa?'
tbsg43
(lp1045
sbassI22
(dp1046
g863
(lp1047
g8
(g17
g10
NtRp1048
(dp1049
g20
g8
(g21
g10
NtRp1050
(dp1051
g24
g869
sg26
I1
sg27
F0.34999999999999998
sg28
S'A'
sg29
S'C'
sg30
g870
sg32
g871
sg34
F12.0107
sg35
g872
sbsg37
g38
(g39
(I0
tS'b'
tRp1052
(I1
(I3
tg874
I00
S'\x81,z\x8f\xbf\xed\xe6?\xc5\xa6p\x1e\\\xbb\x16@\xe1*\xe0\xd0\xd1\xac\xeb?'
tbsg43
(lp1053
sbassI26
(dp1054
g863
(lp1055
g8
(g17
g10
NtRp1056
(dp1057
g20
g8
(g21
g10
NtRp1058
(dp1059
g24
S'C300'
p1060
sg26
I1
sg27
F0.14999999999999999
sg28
S'A'
sg29
S'C'
sg30
g870
sg32
S'C3'
p1061
sg34
F12.0107
sg35
S'Carbon'
p1062
sbsg37
g38
(g39
(I0
tS'b'
tRp1063
(I1
(I3
tg874
I00
S'\x01\xa9\xf9\xd6\xb0>\xfc?\x92\xaf\xc92Z\x13 @\xacz\x9f\xc9z\xcf\xd7?'
tbsg43
(lp1064
sbassI27
(dp1065
g863
(lp1066
g8
(g17
g10
NtRp1067
(dp1068
g20
g8
(g21
g10
NtRp1069
(dp1070
g24
S'H150'
p1071
sg26
I1
sg27
F0.10000000000000001
sg28
S'A'
sg29
S'H'
sg30
g870
sg32
S'H'
sg34
F1.0079
sg35
S'Hydrogen'
p1072
sbsg37
g38
(g39
(I0
tS'b'
tRp1073
(I1
(I3
tg874
I00
S'\xa0\x0cI\xb6\xa4\xd9\x01@\x94\xe8wc\xa8]!@\x12f\xac\xb8\rW\xf2?'
tbsg43
(lp1074
sbassI28
(dp1075
g863
(lp1076
g8
(g17
g10
NtRp1077
(dp1078
g20
g8
(g21
g10
NtRp1079
(dp1080
g24
S'O300'
p1081
sg26
I1
sg27
F-0.65000000000000002
sg28
S'A'
sg29
S'O'
sg30
g870
sg32
S'O3'
p1082
sg34
F15.9994
sg35
S'Oxygen'
p1083
sbsg37
g38
(g39
(I0
tS'b'
tRp1084
(I1
(I3
tg874
I00
S'\x18*-^\xbeM\x04@\x82,\xdb\x16&Q @\xb7!"\t\xa7\xa1\xe9\xbf'
tbsg43
(lp1085
sbassI29
(dp1086
g863
(lp1087
g8
(g17
g10
NtRp1088
(dp1089
g20
g8
(g21
g10
NtRp1090
(dp1091
g24
g914
sg26
I1
sg27
F0.14999999999999999
sg28
S'A'
sg29
S'C'
sg30
g870
sg32
g915
sg34
F12.0107
sg35
g916
sbsg37
g38
(g39
(I0
tS'b'
tRp1092
(I1
(I3
tg874
I00
S'\xc2\xb7j\xc4p\xe7\xd7?\x94\x96\xf3\xa2\xf3\x17!@\x8e>)\xf6S&\xb9?'
tbsg43
(lp1093
sbassI30
(dp1094
g863
(lp1095
g8
(g17
g10
NtRp1096
(dp1097
g20
g8
(g21
g10
NtRp1098
(dp1099
g24
g925
sg26
I1
sg27
F0.10000000000000001
sg28
S'A'
sg29
S'H'
sg30
g870
sg32
S'H'
sg34
F1.0079
sg35
g926
sbsg37
g38
(g39
(I0
tS'b'
tRp1100
(I1
(I3
tg874
I00
S'\xc5\n0HR\n\xcd?\x94\xab\x04-/\x94!@\xed\xc3W\xdf34\xef\xbf'
tbsg43
(lp1101
sbassI31
(dp1102
g863
(lp1103
g8
(g17
g10
NtRp1104
(dp1105
g20
g8
(g21
g10
NtRp1106
(dp1107
g24
g935
sg26
I1
sg27
F-0.59999999999999998
sg28
S'A'
sg29
S'O'
sg30
g870
sg32
g936
sg34
F15.9994
sg35
g937
sbsg37
g38
(g39
(I0
tS'b'
tRp1108
(I1
(I3
tg874
I00
S'\xc2\nlj\x8c\x00\xd1?Dn\xc1\xf1\xe5\x83#@\xa5\xf1R\xd2\xa6\xe6\xec?'
tbsg43
(lp1109
sbassI32
(dp1110
g863
(lp1111
g8
(g17
g10
NtRp1112
(dp1113
g20
g8
(g21
g10
NtRp1114
(dp1115
g24
g946
sg26
I1
sg27
F0.10000000000000001
sg28
S'A'
sg29
S'C'
sg30
g870
sg32
g947
sg34
F12.0107
sg35
g948
sbsg37
g38
(g39
(I0
tS'b'
tRp1116
(I1
(I3
tg874
I00
S"\xff\x01c/\x9c\x05\xe5\xbf\xa44\xf7\xaeS\x13\x1e@3\xbfK\xe8'B\xe2?"
tbsg43
(lp1117
sbassI33
(dp1118
g863
(lp1119
g8
(g17
g10
NtRp1120
(dp1121
g20
g8
(g21
g10
NtRp1122
(dp1123
g24
g957
sg26
I1
sg27
F0.10000000000000001
sg28
S'A'
sg29
S'H'
sg30
g870
sg32
S'H'
sg34
F1.0079
sg35
g958
sbsg37
g38
(g39
(I0
tS'b'
tRp1124
(I1
(I3
tg874
I00
S'Oz8\x97X\xea\xe5\xbfd\xb6\xcaLo\xc7\x1d@\xa7L0C\x17\xdd\xfa?'
tbsg43
(lp1125
sbassI34
(dp1126
g863
(lp1127
g8
(g17
g10
NtRp1128
(dp1129
g20
g8
(g21
g10
NtRp1130
(dp1131
g24
g967
sg26
I1
sg27
F-0.40000000000000002
sg28
S'A'
sg29
S'O'
sg30
g870
sg32
g968
sg34
F15.9994
sg35
g969
sbsg37
g38
(g39
(I0
tS'b'
tRp1132
(I1
(I3
tg874
I00
S'\x1e\xd4z\xbdr\xdb\xd0\xbf\xc5|\x93\x19\xa4\x07\x19@P\x1a\x05\xb9\x81\xcd\x84?'
tbsg43
(lp1133
sbassI35
(dp1134
g863
(lp1135
g8
(g17
g10
NtRp1136
(dp1137
g20
g8
(g21
g10
NtRp1138
(dp1139
g24
g978
sg26
I1
sg27
F0.050000000000000003
sg28
S'A'
sg29
S'C'
sg30
g870
sg32
g979
sg34
F12.0107
sg35
g980
sbsg37
g38
(g39
(I0
tS'b'
tRp1140
(I1
(I3
tg874
I00
S'\x1ce|+\xf14\x00\xc0\xa4\xa0\x83J\xd0\xac\x1e@\xd0\x01\x1d\xc4K\xec\x83?'
tbsg43
(lp1141
sbassI36
(dp1142
g863
(lp1143
g8
(g17
g10
NtRp1144
(dp1145
g20
g8
(g21
g10
NtRp1146
(dp1147
g24
g989
sg26
I1
sg27
F-0.65000000000000002
sg28
S'A'
sg29
S'O'
sg30
g870
sg32
g990
sg34
F15.9994
sg35
g991
sbsg37
g38
(g39
(I0
tS'b'
tRp1148
(I1
(I3
tg874
I00
S'\\\xb0\x9cu\x98.\x03\xc0\x05\xa7\xec\xda\xf9\x8a\x19@j\xe2S\xed\x97Q\xde\xbf'
tbsg43
(lp1149
sbassI37
(dp1150
g863
(lp1151
g8
(g17
g10
NtRp1152
(dp1153
g20
g8
(g21
g10
NtRp1154
(dp1155
g24
g1000
sg26
I1
sg27
F0.10000000000000001
sg28
S'A'
sg29
S'H'
sg30
g870
sg32
S'H'
sg34
F1.0079
sg35
g1001
sbsg37
g38
(g39
(I0
tS'b'
tRp1156
(I1
(I3
tg874
I00
S'b\x82\x8c@\xd1\xf7\xd4?Eu\xd7V-,\x16@i\xd8H\xd2\xadr\xfe?'
tbsg43
(lp1157
sbassI39
(dp1158
g863
(lp1159
g8
(g17
g10
NtRp1160
(dp1161
g20
g8
(g21
g10
NtRp1162
(dp1163
g24
S'H210'
p1164
sg26
I1
sg27
F0.40000000000000002
sg28
S'A'
sg29
S'H'
sg30
g870
sg32
S'HO'
p1165
sg34
F1.0079
sg35
S'Hydrogen'
p1166
sbsg37
g38
(g39
(I0
tS'b'
tRp1167
(I1
(I3
tg874
I00
S'\x88\x04\x9f\xa0\x0c\x05\x08@d]\xb6\x99\xd5B\x1d@\xf5X\xa4\xe0:\xc6\xeb\xbf'
tbsg43
(lp1168
sbassI40
(dp1169
g863
(lp1170
g8
(g17
g10
NtRp1171
(dp1172
g20
g8
(g21
g10
NtRp1173
(dp1174
g24
g1021
sg26
I1
sg27
F0.10000000000000001
sg28
S'A'
sg29
S'H'
sg30
g870
sg32
S'H'
sg34
F1.0079
sg35
g1022
sbsg37
g38
(g39
(I0
tS'b'
tRp1175
(I1
(I3
tg874
I00
S'\xc0\x1f&\xee\xe1\\\x00\xc0d\xae\xa7o\xb8\xc9 @\x91z\xf5\x0cV\xa4\xea\xbf'
tbsg43
(lp1176
sbassI41
(dp1177
g863
(lp1178
g8
(g17
g10
NtRp1179
(dp1180
g20
g8
(g21
g10
NtRp1181
(dp1182
g24
g1031
sg26
I1
sg27
F0.10000000000000001
sg28
S'A'
sg29
S'H'
sg30
g870
sg32
S'H'
sg34
F1.0079
sg35
g1032
sbsg37
g38
(g39
(I0
tS'b'
tRp1183
(I1
(I3
tg874
I00
S'h|^\xf2F\xf4\x05\xc0\x04\x0e\x0b\x12\xa8\xfc\x1f@#\xda\x1f[Kd\xe9?'
tbsg43
(lp1184
sbassI42
(dp1185
g863
(lp1186
g8
(g17
g10
NtRp1187
(dp1188
g20
g8
(g21
g10
NtRp1189
(dp1190
g24
g1041
sg26
I1
sg27
F0.40000000000000002
sg28
S'A'
sg29
S'H'
sg30
g870
sg32
g1042
sg34
F1.0079
sg35
g1043
sbsg37
g38
(g39
(I0
tS'b'
tRp1191
(I1
(I3
tg874
I00
S'\x0f\xaa+z6?\xf9\xbf\xc5\x15\x0c\xc6O\xfa\x17@5\xe3T\xa7J\x19\xe9\xbf'
tbsg43
(lp1192
sbassI47
(dp1193
g863
(lp1194
g8
(g17
g10
NtRp1195
(dp1196
g20
g8
(g21
g10
NtRp1197
(dp1198
g24
g1060
sg26
I1
sg27
F0.14999999999999999
sg28
S'A'
sg29
S'C'
sg30
g870
sg32
g1061
sg34
F12.0107
sg35
g1062
sbsg37
g38
(g39
(I0
tS'b'
tRp1199
(I1
(I3
tg41
(S'f8'
I0
I1
tRp1200
(I3
S'<'
NNNI-1
I-1
I0
tbI00
S'\xaf\xc1B\x98\xee\xb0\xec\xbf?\x03\xb2\xd8\xa4"\x07@+yI\xfc\xdd\xf7\xec?'
tbsg43
(lp1201
sbassI48
(dp1202
g863
(lp1203
g8
(g17
g10
NtRp1204
(dp1205
g20
g8
(g21
g10
NtRp1206
(dp1207
g24
g1071
sg26
I1
sg27
F0.10000000000000001
sg28
S'A'
sg29
S'H'
sg30
g870
sg32
S'H'
sg34
F1.0079
sg35
g1072
sbsg37
g38
(g39
(I0
tS'b'
tRp1208
(I1
(I3
tg1200
I00
S'\x7f\x84EZ\x84\x0b\xfb\xbfK}g\xe6i\xac\x06@\x17Di\x04\x1e\xdf\xfa?'
tbsg43
(lp1209
sbassI49
(dp1210
g863
(lp1211
g8
(g17
g10
NtRp1212
(dp1213
g20
g8
(g21
g10
NtRp1214
(dp1215
g24
g1081
sg26
I1
sg27
F-0.65000000000000002
sg28
S'A'
sg29
S'O'
sg30
g870
sg32
g1082
sg34
F15.9994
sg35
g1083
sbsg37
g38
(g39
(I0
tS'b'
tRp1216
(I1
(I3
tg1200
I00
S'\x17\x9a[\xf4w\xc5\xf7\xbfw\xa6\xaf~\xf1?\x0b@x\xcbP\xe3\x0c#\xd1\xbf'
tbsg43
(lp1217
sbassI60
(dp1218
g863
(lp1219
g8
(g17
g10
NtRp1220
(dp1221
g20
g8
(g21
g10
NtRp1222
(dp1223
g24
g1164
sg26
I1
sg27
F0.40000000000000002
sg28
S'A'
sg29
S'H'
sg30
g870
sg32
g1165
sg34
F1.0079
sg35
g1166
sbsg37
g38
(g39
(I0
tS'b'
tRp1224
(I1
(I3
tg1200
I00
S'\x87Oc\x8d\xa36\xf2\xbf\xc1\xf99\xc8]7\x11@\xb29U\x924l\xd5\xbf'
tbsg43
(lp1225
sbassI83
(dp1226
g863
(lp1227
g8
(g17
g10
NtRp1228
(dp1229
g20
g8
(g21
g10
NtRp1230
(dp1231
g24
g882
sg26
I1
sg27
F0.14999999999999999
sg28
S'A'
sg29
S'C'
sg30
g870
sg32
g883
sg34
F12.0107
sg35
g884
sbsg37
g38
(g39
(I0
tS'b'
tRp1232
(I1
(I3
tg1200
I00
S' [{\xd6\xe4m\x00@I&\xba!\xbd\x1b\x1a@p)\x8ac\xee\xf1\xc6?'
tbsg43
(lp1233
sbassI84
(dp1234
g863
(lp1235
g8
(g17
g10
NtRp1236
(dp1237
g20
g8
(g21
g10
NtRp1238
(dp1239
g24
g893
sg26
I1
sg27
F0.10000000000000001
sg28
S'A'
sg29
S'H'
sg30
g870
sg32
S'H'
sg34
F1.0079
sg35
g894
sbsg37
g38
(g39
(I0
tS'b'
tRp1240
(I1
(I3
tg1200
I00
S'@p\x06 \xcb\x17\x03@\t\xf2\xb3MF\x02\x17@8jw:=\x7f\xe1\xbf'
tbsg43
(lp1241
sbassI85
(dp1242
g863
(lp1243
g8
(g17
g10
NtRp1244
(dp1245
g20
g8
(g21
g10
NtRp1246
(dp1247
g24
g903
sg26
I1
sg27
F-0.65000000000000002
sg28
S'A'
sg29
S'O'
sg30
g870
sg32
g904
sg34
F15.9994
sg35
g905
sbsg37
g38
(g39
(I0
tS'b'
tRp1248
(I1
(I3
tg1200
I00
S'\xf8A\x08T\x01\xdf\x05@],|\x85=N\x19@\xc5\x07<\x9dva\xf6?'
tbsg43
(lp1249
sbassI98
(dp1250
g863
(lp1251
g8
(g17
g10
NtRp1252
(dp1253
g20
g8
(g21
g10
NtRp1254
(dp1255
g24
g1010
sg26
I1
sg27
F0.40000000000000002
sg28
S'A'
sg29
S'H'
sg30
g870
sg32
g1011
sg34
F1.0079
sg35
g1012
sbsg37
g38
(g39
(I0
tS'b'
tRp1256
(I1
(I3
tg1200
I00
S'0\xff\xe2\x8a\xdeq\x0b@\x83$\xa5\xd8\xc9\xf4\x1b@\r\xdd\x03\xd0\x01E\xf6?'
tbsg43
(lp1257
sbassI99
(dp1258
g863
(lp1259
g8
(g17
g10
NtRp1260
(dp1261
g20
g8
(g21
g10
NtRp1262
(dp1263
g24
S'H'
sg26
I1
sg27
F0.10000000000000001
sg28
S'A'
sg29
S'H'
sg30
S'ELT'
p1264
sg32
S'H'
sg34
F1.0079400000000001
sg35
S'H'
sbsg37
g38
(g39
(I0
tS'b'
tRp1265
(I1
(I3
tg1200
I00
S'\x14\xa0\x89\xcc:\xb7\xa8?\x98\x0e\x04\xca\xaa\x98\x9f\xbf\x02\x1c\x83-e\xe9\xf2?'
tbsg43
(lp1266
sbassI100
(dp1267
g863
(lp1268
g8
(g17
g10
NtRp1269
(dp1270
g20
g8
(g21
g10
NtRp1271
(dp1272
g24
S'H'
sg26
I1
sg27
F0.10000000000000001
sg28
S'A'
sg29
S'H'
sg30
g1264
sg32
S'H'
sg34
F1.0079400000000001
sg35
S'H'
sbsg37
g38
(g39
(I0
tS'b'
tRp1273
(I1
(I3
tg1200
I00
S'\x85\x01\xbcLh\xc7\xcf?\xc6\xcagw\x00\xbd%@\x86&\x98>\xb9\xfc\xb4?'
tbsg43
(lp1274
sbasssg435
(dp1275
sg437
I00
sg438
(lp1276
(lp1277
I1
aI0
aI0
aI0
aa(lp1278
I0
aI1
aI0
aI0
aa(lp1279
I0
aI0
aI1
aI0
aa(lp1280
I0
aI0
aI0
aI1
aasg444
(dp1281
sg32
S'CelluloseB_1'
p1282
sg447
(dp1283
I1
(dp1284
I16
(dp1285
sI2
(dp1286
sI99
(dp1287
sI13
(dp1288
ssI2
(dp1289
I1
g1286
sI3
(dp1290
sI4
(dp1291
sI47
(dp1292
ssI3
(dp1293
I2
g1290
ssI4
(dp1294
I17
(dp1295
sI2
g1291
ssI8
(dp1296
I9
(dp1297
sI10
(dp1298
sI11
(dp1299
sI47
(dp1300
ssI9
(dp1301
I8
g1297
ssI10
(dp1302
I8
g1298
sI22
(dp1303
ssI11
(dp1304
I8
g1299
sI12
(dp1305
sI13
(dp1306
sI14
(dp1307
ssI12
(dp1308
I11
g1305
ssI13
(dp1309
I1
g1288
sI11
g1306
ssI14
(dp1310
I19
(dp1311
sI11
g1307
sI20
(dp1312
sI15
(dp1313
ssI15
(dp1314
I21
(dp1315
sI14
g1313
ssI16
(dp1316
I1
g1285
ssI17
(dp1317
I4
g1295
ssI19
(dp1318
I14
g1311
ssI20
(dp1319
I14
g1312
ssI21
(dp1320
I15
g1315
ssI22
(dp1321
I10
g1303
sI83
(dp1322
sI34
(dp1323
sI37
(dp1324
ssI26
(dp1325
I27
(dp1326
sI83
(dp1327
sI28
(dp1328
sI29
(dp1329
ssI27
(dp1330
I26
g1326
ssI28
(dp1331
I26
g1328
sI39
(dp1332
ssI29
(dp1333
I32
(dp1334
sI26
g1329
sI30
(dp1335
sI31
(dp1336
ssI30
(dp1337
I29
g1335
ssI31
(dp1338
I100
(dp1339
sI29
g1336
ssI32
(dp1340
I33
(dp1341
sI34
(dp1342
sI35
(dp1343
sI29
g1334
ssI33
(dp1344
I32
g1341
ssI34
(dp1345
I32
g1342
sI22
g1323
ssI35
(dp1346
I32
g1343
sI40
(dp1347
sI36
(dp1348
sI41
(dp1349
ssI36
(dp1350
I42
(dp1351
sI35
g1348
ssI37
(dp1352
I22
g1324
ssI39
(dp1353
I28
g1332
ssI40
(dp1354
I35
g1347
ssI41
(dp1355
I35
g1349
ssI42
(dp1356
I36
g1351
ssI47
(dp1357
I8
g1300
sI48
(dp1358
sI2
g1292
sI49
(dp1359
ssI48
(dp1360
I47
g1358
ssI49
(dp1361
I60
(dp1362
sI47
g1359
ssI60
(dp1363
I49
g1362
ssI83
(dp1364
I26
g1327
sI84
(dp1365
sI85
(dp1366
sI22
g1322
ssI84
(dp1367
I83
g1365
ssI85
(dp1368
I98
(dp1369
sI83
g1366
ssI98
(dp1370
I85
g1369
ssI99
(dp1371
I1
g1287
ssI100
(dp1372
I31
g1339
sssg536
g8
(g537
g10
NtRp1373
(dp1374
g540
(dp1375
sg542
(dp1376
sg544
(dp1377
sg546
S'/home/jse/inv/Cuchifritos/bazaar/Wolffia/data/forceFields/Cellulose.prm'
p1378
sg548
(dp1379
(S'C400'
p1380
S'C500'
p1381
tp1382
(lp1383
F222.5
aF1.5
as(S'C100'
p1384
S'H180'
p1385
tp1386
(lp1387
F309
aF1.111
as(g1384
S'O500'
p1388
tp1389
(lp1390
F428
aF1.4199999999999999
as(g1380
S'O400'
p1391
tp1392
(lp1393
F428
aF1.4199999999999999
as(S'C200'
p1394
S'C300'
p1395
tp1396
(lp1397
F222.5
aF1.5
as(S'C600'
p1398
S'H110'
p1399
tp1400
(lp1401
F309
aF1.111
as(S'H210'
p1402
S'O300'
p1403
tp1404
(lp1405
F545
aF0.95999999999999996
as(g1394
S'O200'
p1406
tp1407
(lp1408
F428
aF1.4199999999999999
as(g1395
g1403
tp1409
(lp1410
F428
aF1.4199999999999999
as(g1381
g1388
tp1411
(lp1412
F428
aF1.4199999999999999
as(g1384
g1394
tp1413
(lp1414
F222.5
aF1.5
as(g1398
S'H120'
p1415
tp1416
(lp1417
F309
aF1.111
as(g1395
g1380
tp1418
(lp1419
F222.5
aF1.5
as(g1384
g1391
tp1420
(lp1421
F428
aF1.4199999999999999
as(g1381
S'H170'
p1422
tp1423
(lp1424
F309
aF1.111
as(g869
S'H'
tp1425
(lp1426
F309
aF1.111
as(S'H190'
p1427
g1406
tp1428
(lp1429
F545
aF0.95999999999999996
as(g1398
S'O600'
p1430
tp1431
(lp1432
F428
aF1.4199999999999999
as(S'H130'
p1433
g1430
tp1434
(lp1435
F545
aF0.95999999999999996
as(g1394
S'H140'
p1436
tp1437
(lp1438
F309
aF1.111
as(g1381
g1398
tp1439
(lp1440
F222.5
aF1.5
as(g1395
S'H150'
p1441
tp1442
(lp1443
F309
aF1.111
as(g1380
S'H160'
p1444
tp1445
(lp1446
F309
aF1.111
as(S'H'
g935
tp1447
(lp1448
F545
aF0.95999999999999996
assg617
(dp1449
(g1399
g1398
g1430
tp1450
(lp1451
F78.195999999999998
aF108.89
as(g1380
g1381
g1398
tp1452
(lp1453
F91.787999999999997
aF111
as(g1394
g1406
g1427
tp1454
(lp1455
F119.044
aF106
as(g1381
g1398
g1415
tp1456
(lp1457
F79.373999999999995
aF110.09999999999999
as(g1441
g1395
g1403
tp1458
(lp1459
F78.195999999999998
aF108.89
as(g1415
g1398
g1430
tp1460
(lp1461
F78.195999999999998
aF108.89
as(g1398
g1430
g1433
tp1462
(lp1463
F119.044
aF106
as(g1395
g1394
g1406
tp1464
(lp1465
F113.39100000000001
aF110.09999999999999
as(g1395
g1380
g1381
tp1466
(lp1467
F91.787999999999997
aF111
as(g1395
g1394
g1436
tp1468
(lp1469
F79.373999999999995
aF110.09999999999999
as(g1384
g1394
g1406
tp1470
(lp1471
F113.39100000000001
aF110.09999999999999
as(g1380
g1381
g1388
tp1472
(lp1473
F107.179
aF105
as(g1381
g1380
g1391
tp1474
(lp1475
F107.179
aF105
as(g1394
g1395
g1441
tp1476
(lp1477
F79.373999999999995
aF110.09999999999999
as(g1381
g1398
g1399
tp1478
(lp1479
F79.373999999999995
aF110.09999999999999
as(g1394
g1395
g1380
tp1480
(lp1481
F91.787999999999997
aF111
as(g1399
g1398
g1415
tp1482
(lp1483
F78.299000000000007
aF109
as(g1394
g1384
g1391
tp1484
(lp1485
F107.179
aF105
as(g1422
g1381
g1388
tp1486
(lp1487
F76.739999999999995
aF107.23999999999999
as(g1391
g1384
g1388
tp1488
(lp1489
F214.084
aF111.55
as(g1384
g1391
g1380
tp1490
(lp1491
F131.929
aF107.5
as(g1384
g1388
g1381
tp1492
(lp1493
F131.929
aF107.5
as(g1381
g1398
g1430
tp1494
(lp1495
F113.39100000000001
aF110.09999999999999
as(g1381
g1380
g1444
tp1496
(lp1497
F79.373999999999995
aF110.09999999999999
as(g1380
g1381
g1422
tp1498
(lp1499
F79.373999999999995
aF110.09999999999999
as(g1444
g1380
g1391
tp1500
(lp1501
F76.739999999999995
aF107.23999999999999
as(g1395
g1403
g1402
tp1502
(lp1503
F119.044
aF106
as(g1384
g1394
g1436
tp1504
(lp1505
F79.373999999999995
aF110.09999999999999
as(g1385
g1384
g1388
tp1506
(lp1507
F76.739999999999995
aF107.23999999999999
as(g1394
g1395
g1403
tp1508
(lp1509
F113.39100000000001
aF110.09999999999999
as(g1394
g1384
g1385
tp1510
(lp1511
F79.373999999999995
aF110.09999999999999
as(g1398
g1381
g1388
tp1512
(lp1513
F107.179
aF105
as(g1436
g1394
g1406
tp1514
(lp1515
F78.195999999999998
aF108.89
as(g1385
g1384
g1391
tp1516
(lp1517
F76.739999999999995
aF107.23999999999999
as(g1380
g1395
g1403
tp1518
(lp1519
F113.39100000000001
aF110.09999999999999
as(g1384
g1394
g1395
tp1520
(lp1521
F91.787999999999997
aF111
as(g1395
g1380
g1391
tp1522
(lp1523
F107.179
aF105
as(g1394
g1384
g1388
tp1524
(lp1525
F107.179
aF105
as(g1380
g1395
g1441
tp1526
(lp1527
F79.373999999999995
aF110.09999999999999
as(g1395
g1380
g1444
tp1528
(lp1529
F79.373999999999995
aF110.09999999999999
as(g1398
g1381
g1422
tp1530
(lp1531
F79.373999999999995
aF110.09999999999999
assg701
(dp1532
g1403
(lp1533
F-0.19209999999999999
aF1.7649999999999999
aF-0.65000000000000002
asg1398
(lp1534
F-0.032000000000000001
aF2
aF0.050000000000000003
asg1430
(lp1535
F-0.19209999999999999
aF1.7649999999999999
aF-0.65000000000000002
asg1436
(lp1536
F-0.044999999999999998
aF1.3400000000000001
aF0.10000000000000001
asg1380
(lp1537
F-0.032000000000000001
aF2
aF0.14999999999999999
asg1415
(lp1538
F-0.044999999999999998
aF1.3400000000000001
aF0.10000000000000001
asg1394
(lp1539
F-0.032000000000000001
aF2
aF0.14999999999999999
asg1381
(lp1540
F-0.032000000000000001
aF2
aF0.10000000000000001
asg1444
(lp1541
F-0.044999999999999998
aF1.3400000000000001
aF0.10000000000000001
asg1385
(lp1542
F-0.044999999999999998
aF1.3400000000000001
aF0.10000000000000001
asg1391
(lp1543
F-0.19209999999999999
aF1.7649999999999999
aF-0.5
asS'H'
(lp1544
F-0.029999999999999999
aF1.3582000000000001
aF0
asg1422
(lp1545
F-0.044999999999999998
aF1.3400000000000001
aF0.10000000000000001
asg1402
(lp1546
F-0.045999999999999999
aF0.22450000000000001
aF0.40000000000000002
asg1388
(lp1547
F-0.19209999999999999
aF1.7649999999999999
aF-0.40000000000000002
asg1441
(lp1548
F-0.044999999999999998
aF1.3400000000000001
aF0.10000000000000001
asg1399
(lp1549
F-0.044999999999999998
aF1.3400000000000001
aF0.10000000000000001
asg1433
(lp1550
F-0.045999999999999999
aF0.22450000000000001
aF0.40000000000000002
asg1395
(lp1551
F-0.032000000000000001
aF2
aF0.14999999999999999
asg1427
(lp1552
F-0.045999999999999999
aF0.22450000000000001
aF0.40000000000000002
asg1406
(lp1553
F-0.19209999999999999
aF1.7649999999999999
aF-0.65000000000000002
asg1384
(lp1554
F-0.032000000000000001
aF2
aF0.34999999999999998
assg725
S'Cellulose(2)'
p1555
sg727
(dp1556
(g1422
g1381
g1398
g1430
tp1557
(lp1558
F0.14999999999999999
aI3
aF180
as(g1381
g1388
g1384
g1385
tp1559
(lp1560
F0.10000000000000001
aI3
aF180
as(g1381
g1380
g1395
g1441
tp1561
(lp1562
F0.14999999999999999
aI3
aF180
as(g1436
g1394
g1384
g1388
tp1563
(lp1564
F0.14999999999999999
aI3
aF180
as(g1384
g1394
g1395
g1380
tp1565
(lp1566
F0.14999999999999999
aI3
aF180
as(g1403
g1395
g1380
g1391
tp1567
(lp1568
F-1.8400000000000001
aI1
aF180
as(g1380
g1381
g1398
g1430
tp1569
(lp1570
F0.14999999999999999
aI3
aF180
as(g1444
g1380
g1395
g1403
tp1571
(lp1572
F0.14999999999999999
aI3
aF180
as(g1381
g1388
g1384
g1391
tp1573
(lp1574
F-1.1499999999999999
aI1
aF180
as(g1441
g1395
g1394
g1406
tp1575
(lp1576
F0.14999999999999999
aI3
aF180
as(g1441
g1395
g1380
g1444
tp1577
(lp1578
F0.14999999999999999
aI3
aF180
as(g1394
g1384
g1388
g1381
tp1579
(lp1580
F0.59999999999999998
aI1
aF180
as(g1381
g1398
g1430
g1433
tp1581
(lp1582
F0.14000000000000001
aI3
aF180
as(g1441
g1395
g1380
g1391
tp1583
(lp1584
F0.14999999999999999
aI3
aF180
as(g1398
g1381
g1380
g1391
tp1585
(lp1586
F0.14999999999999999
aI3
aF180
as(g1384
g1394
g1395
g1403
tp1587
(lp1588
F0.82999999999999996
aI1
aF180
as(g1406
g1394
g1395
g1403
tp1589
(lp1590
F-1.6299999999999999
aI1
aF180
as(g1436
g1394
g1406
g1427
tp1591
(lp1592
F0.14000000000000001
aI3
aF180
as(g1380
g1395
g1403
g1402
tp1593
(lp1594
F0.14000000000000001
aI3
aF180
as(g1422
g1381
g1380
g1391
tp1595
(lp1596
F0.14999999999999999
aI3
aF180
as(g1384
g1394
g1395
g1441
tp1597
(lp1598
F0.14999999999999999
aI3
aF180
as(g1399
g1398
g1430
g1433
tp1599
(lp1600
F0.14000000000000001
aI3
aF180
as(g1436
g1394
g1384
g1391
tp1601
(lp1602
F0.14999999999999999
aI3
aF180
as(g1394
g1395
g1380
g1444
tp1603
(lp1604
F0.14999999999999999
aI3
aF180
as(g1406
g1394
g1384
g1388
tp1605
(lp1606
F-1.8400000000000001
aI1
aF180
as(g1395
g1380
g1381
g1388
tp1607
(lp1608
F0.14999999999999999
aI3
aF180
as(g1384
g1394
g1406
g1427
tp1609
(lp1610
F0.14000000000000001
aI3
aF180
as(g1380
g1381
g1398
g1415
tp1611
(lp1612
F0.14999999999999999
aI3
aF180
as(g1398
g1381
g1380
g1444
tp1613
(lp1614
F0.14999999999999999
aI3
aF180
as(g1380
g1395
g1394
g1406
tp1615
(lp1616
F0.82999999999999996
aI1
aF180
as(g1388
g1381
g1398
g1430
tp1617
(lp1618
F-1.8400000000000001
aI1
aF180
as(g1385
g1384
g1394
g1406
tp1619
(lp1620
F0.14999999999999999
aI3
aF180
as(g1394
g1395
g1403
g1402
tp1621
(lp1622
F0.14000000000000001
aI3
aF180
as(g1391
g1380
g1381
g1388
tp1623
(lp1624
F0.14999999999999999
aI3
aF180
as(g1415
g1398
g1430
g1433
tp1625
(lp1626
F0.14000000000000001
aI3
aF180
as(g1395
g1394
g1384
g1385
tp1627
(lp1628
F0.14999999999999999
aI3
aF180
as(g1395
g1380
g1381
g1422
tp1629
(lp1630
F0.14999999999999999
aI3
aF180
as(g869
g935
g914
g1060
tp1631
(lp1632
F0.59999999999999998
aF1
aF180
as(g1380
g1391
g1384
g1385
tp1633
(lp1634
F0.14000000000000001
aI3
aF180
as(g1380
g1395
g1394
g1436
tp1635
(lp1636
F0.14999999999999999
aI3
aF180
as(g1444
g1380
g1381
g1422
tp1637
(lp1638
F0.14999999999999999
aI3
aF180
as(g1380
g1391
g1384
g1388
tp1639
(lp1640
F-1.1499999999999999
aI1
aF180
as(g1381
g1380
g1395
g1403
tp1641
(lp1642
F0.82999999999999996
aI1
aF180
as(g1436
g1394
g1395
g1441
tp1643
(lp1644
F0.14999999999999999
aI3
aF180
as(g1406
g1394
g1384
g1391
tp1645
(lp1646
F-1.8400000000000001
aI1
aF180
as(g1399
g1398
g1381
g1422
tp1647
(lp1648
F0
aI0
aF0
as(g1399
g1398
g1381
g1388
tp1649
(lp1650
F0.14999999999999999
aI3
aF180
as(g1395
g1394
g1406
g1427
tp1651
(lp1652
F0.14000000000000001
aI3
aF180
as(g1436
g1394
g1395
g1403
tp1653
(lp1654
F0.14999999999999999
aI3
aF180
as(g1394
g1395
g1380
g1391
tp1655
(lp1656
F0.14999999999999999
aI3
aF180
as(g1415
g1398
g1381
g1422
tp1657
(lp1658
F0
aI0
aF0
as(g1380
g1381
g1398
g1399
tp1659
(lp1660
F0.14999999999999999
aI3
aF180
as(g1384
g1388
g1381
g1398
tp1661
(lp1662
F0.59999999999999998
aI1
aF180
as(g1394
g1395
g1380
g1381
tp1663
(lp1664
F0.14999999999999999
aI3
aF180
as(g1384
g1391
g1380
g1381
tp1665
(lp1666
F0.59999999999999998
aI1
aF180
as(g1394
g1384
g1391
g1380
tp1667
(lp1668
F0.59999999999999998
aI1
aF180
as(g1415
g1398
g1381
g1388
tp1669
(lp1670
F0.14999999999999999
aI3
aF180
as(g1444
g1380
g1381
g1388
tp1671
(lp1672
F0.14999999999999999
aI3
aF180
as(g1395
g1394
g1384
g1388
tp1673
(lp1674
F0.14999999999999999
aI3
aF180
as(g1395
g1394
g1384
g1391
tp1675
(lp1676
F0.14999999999999999
aI3
aF180
as(g1441
g1395
g1403
g1402
tp1677
(lp1678
F0.14000000000000001
aI3
aF180
as(g1436
g1394
g1384
g1385
tp1679
(lp1680
F0.14999999999999999
aI3
aF180
as(g1395
g1380
g1381
g1398
tp1681
(lp1682
F0.14999999999999999
aI3
aF180
assbsg855
g1283
sbassS'Cellulose_1_1'
p1683
(dp1684
g6
(lp1685
g8
(g9
g10
NtRp1686
(dp1687
g2
(dp1688
I1
(dp1689
g15
(lp1690
g8
(g17
g10
NtRp1691
(dp1692
g20
g8
(g21
g10
NtRp1693
(dp1694
g24
g25
sg26
I1
sg27
F0.34999999999999998
sg28
S'A'
sg29
S'C'
sg30
g31
sg32
g33
sg34
F12.0107
sg35
g36
sbsg37
g38
(g39
(I0
tS'b'
tRp1695
(I1
(I3
tg42
I00
S"T'\x7fn\xf2\xe2\xab?\x80B\xd8\xca(\xb1\xbb?]P\x9dV\xf0\x8f\xa5?"
tbsg43
(lp1696
sbassI2
(dp1697
g15
(lp1698
g8
(g17
g10
NtRp1699
(dp1700
g20
g8
(g21
g10
NtRp1701
(dp1702
g24
g51
sg26
I1
sg27
F0.14999999999999999
sg28
S'A'
sg29
S'C'
sg30
g31
sg32
g52
sg34
F12.0107
sg35
g53
sbsg37
g38
(g39
(I0
tS'b'
tRp1703
(I1
(I3
tg42
I00
S'\xf4\xda*1i%\xf4?\x16\x0er\xce\x84;\xf0?\x16\xecU\x04\xf7\xf4\x9b\xbf'
tbsg43
(lp1704
sbassI3
(dp1705
g15
(lp1706
g8
(g17
g10
NtRp1707
(dp1708
g20
g8
(g21
g10
NtRp1709
(dp1710
g24
g62
sg26
I1
sg27
F0.10000000000000001
sg28
S'A'
sg29
S'H'
sg30
g31
sg32
S'H'
sg34
F1.0079
sg35
g63
sbsg37
g38
(g39
(I0
tS'b'
tRp1711
(I1
(I3
tg42
I00
S'\x1c\x07Gp1\xd5\xfc?\xac|v\xbd\xfa\xee\xee?\x98\x96%7\x8f,\xee?'
tbsg43
(lp1712
sbassI4
(dp1713
g15
(lp1714
g8
(g17
g10
NtRp1715
(dp1716
g20
g8
(g21
g10
NtRp1717
(dp1718
g24
g72
sg26
I1
sg27
F-0.65000000000000002
sg28
S'A'
sg29
S'O'
sg30
g31
sg32
g73
sg34
F15.9994
sg35
g74
sbsg37
g38
(g39
(I0
tS'b'
tRp1719
(I1
(I3
tg42
I00
S'\x05\xbf\x87r\x98\x93\x00@\xd8z\xfa\x98\xdbi\xdc?C-4\xde\xb0w\xf0\xbf'
tbsg43
(lp1720
sbassI5
(dp1721
g15
(lp1722
g8
(g17
g10
NtRp1723
(dp1724
g20
g8
(g21
g10
NtRp1725
(dp1726
g24
g83
sg26
I1
sg27
F0.14999999999999999
sg28
S'A'
sg29
S'C'
sg30
g31
sg32
g84
sg34
F12.0107
sg35
g85
sbsg37
g38
(g39
(I0
tS'b'
tRp1727
(I1
(I3
tg42
I00
S'\x1c\x8c\xb0\xa2\xe8\xa6\xf1?\xeb2\x9c\xd49\xb4\x03@T1M\xcd*\xd8\xdc\xbf'
tbsg43
(lp1728
sbassI6
(dp1729
g15
(lp1730
g8
(g17
g10
NtRp1731
(dp1732
g20
g8
(g21
g10
NtRp1733
(dp1734
g24
g94
sg26
I1
sg27
F0.10000000000000001
sg28
S'A'
sg29
S'H'
sg30
g31
sg32
S'H'
sg34
F1.0079
sg35
g95
sbsg37
g38
(g39
(I0
tS'b'
tRp1735
(I1
(I3
tg42
I00
S'B\xfcH8\x81\x1b\xf9?\xeb\x16U\x97r\xdd\x08@\xa0\xec\xc4K\x91\xb4\xd4?'
tbsg43
(lp1736
sbassI7
(dp1737
g15
(lp1738
g8
(g17
g10
NtRp1739
(dp1740
g20
g8
(g21
g10
NtRp1741
(dp1742
g24
g104
sg26
I1
sg27
F-0.65000000000000002
sg28
S'A'
sg29
S'O'
sg30
g31
sg32
g105
sg34
F15.9994
sg35
g106
sbsg37
g38
(g39
(I0
tS'b'
tRp1743
(I1
(I3
tg42
I00
S'47\x11\x88\xb4\x03\xfe?\x8b&\xe2di\xab\x04@\xd7;L\xea\xbc\xfa\xf9\xbf'
tbsg43
(lp1744
sbassI8
(dp1745
g15
(lp1746
g8
(g17
g10
NtRp1747
(dp1748
g20
g8
(g21
g10
NtRp1749
(dp1750
g24
g115
sg26
I1
sg27
F0.14999999999999999
sg28
S'A'
sg29
S'C'
sg30
g31
sg32
g116
sg34
F12.0107
sg35
g117
sbsg37
g38
(g39
(I0
tS'b'
tRp1751
(I1
(I3
tg42
I00
S'n\xbc\xb9\x0c\xb0w\xd2\xbf\xdb\xceC\x95\x9f\xc6\x07@\x0c.\xb1L\x08/\xe7\xbf'
tbsg43
(lp1752
sbassI9
(dp1753
g15
(lp1754
g8
(g17
g10
NtRp1755
(dp1756
g20
g8
(g21
g10
NtRp1757
(dp1758
g24
g126
sg26
I1
sg27
F0.10000000000000001
sg28
S'A'
sg29
S'H'
sg30
g31
sg32
S'H'
sg34
F1.0079
sg35
g127
sbsg37
g38
(g39
(I0
tS'b'
tRp1759
(I1
(I3
tg42
I00
S'\xcen\x0c\xad\xf7\xd9\xdb\xbf\xeb"\x88\xbd\x8d\xb7\t@\xd4\x0cgU\x03\xc4\xfc\xbf'
tbsg43
(lp1760
sbassI10
(dp1761
g15
(lp1762
g8
(g17
g10
NtRp1763
(dp1764
g20
g8
(g21
g10
NtRp1765
(dp1766
g24
g136
sg26
I1
sg27
F-0.5
sg28
S'A'
sg29
S'O'
sg30
g31
sg32
g137
sg34
F15.9994
sg35
g138
sbsg37
g38
(g39
(I0
tS'b'
tRp1767
(I1
(I3
tg42
I00
S'ri\xb8f\x94^\xd9\xbf\xde\x96=h4\xbb\x10@X\xdd\xe46\xa0\x96\xb4?'
tbsg43
(lp1768
sbassI11
(dp1769
g15
(lp1770
g8
(g17
g10
NtRp1771
(dp1772
g20
g8
(g21
g10
NtRp1773
(dp1774
g24
g147
sg26
I1
sg27
F0.10000000000000001
sg28
S'A'
sg29
S'C'
sg30
g31
sg32
g148
sg34
F12.0107
sg35
g149
sbsg37
g38
(g39
(I0
tS'b'
tRp1775
(I1
(I3
tg42
I00
S'\n\x9e\xfaK\x96\x1a\xf5\xbf\xe6\xbb\xc7\xce\xf0\x1a\xff?Z-U\xc6U#\xd0\xbf'
tbsg43
(lp1776
sbassI12
(dp1777
g15
(lp1778
g8
(g17
g10
NtRp1779
(dp1780
g20
g8
(g21
g10
NtRp1781
(dp1782
g24
g158
sg26
I1
sg27
F0.10000000000000001
sg28
S'A'
sg29
S'H'
sg30
g31
sg32
S'H'
sg34
F1.0079
sg35
g159
sbsg37
g38
(g39
(I0
tS'b'
tRp1783
(I1
(I3
tg42
I00
S'4Z\xe5\x7f\xf4\x8c\xf5\xbf\xe6\xc2\x15F_\xeb\xfd?\x80C\xea\xba[f\xeb?'
tbsg43
(lp1784
sbassI13
(dp1785
g15
(lp1786
g8
(g17
g10
NtRp1787
(dp1788
g20
g8
(g21
g10
NtRp1789
(dp1790
g24
g168
sg26
I1
sg27
F-0.40000000000000002
sg28
S'A'
sg29
S'O'
sg30
g31
sg32
g169
sg34
F15.9994
sg35
g170
sbsg37
g38
(g39
(I0
tS'b'
tRp1791
(I1
(I3
tg42
I00
S'\x03\xa4O\xc7I\x9d\xed\xbf,\xb8q\xf2d\xd8\xe5?xA\x92\xc4\x9c\x00\xea\xbf'
tbsg43
(lp1792
sbassI14
(dp1793
g15
(lp1794
g8
(g17
g10
NtRp1795
(dp1796
g20
g8
(g21
g10
NtRp1797
(dp1798
g24
g179
sg26
I1
sg27
F0.050000000000000003
sg28
S'A'
sg29
S'C'
sg30
g31
sg32
g180
sg34
F12.0107
sg35
g181
sbsg37
g38
(g39
(I0
tS'b'
tRp1799
(I1
(I3
tg42
I00
S'\xac\xf3\xa0E\xd5\x80\x05\xc0\xeb\xb5|\x9eq\xc0\x00@\xc2\xe1e\x9c!\x04\xea\xbf'
tbsg43
(lp1800
sbassI15
(dp1801
g15
(lp1802
g8
(g17
g10
NtRp1803
(dp1804
g20
g8
(g21
g10
NtRp1805
(dp1806
g24
g190
sg26
I1
sg27
F-0.65000000000000002
sg28
S'A'
sg29
S'O'
sg30
g31
sg32
g191
sg34
F15.9994
sg35
g192
sbsg37
g38
(g39
(I0
tS'b'
tRp1807
(I1
(I3
tg42
I00
S'\xe3>\xc1\x8f|z\x08\xc0\xcc\n;\xfd\x12\xf3\xe9?\x90#\x10aO\xbe\xf4\xbf'
tbsg43
(lp1808
sbassI16
(dp1809
g15
(lp1810
g8
(g17
g10
NtRp1811
(dp1812
g20
g8
(g21
g10
NtRp1813
(dp1814
g24
g201
sg26
I1
sg27
F0.10000000000000001
sg28
S'A'
sg29
S'H'
sg30
g31
sg32
S'H'
sg34
F1.0079
sg35
g202
sbsg37
g38
(g39
(I0
tS'b'
tRp1815
(I1
(I3
tg42
I00
S'\xb8\xf1\x97\x90Og\xd5\xbf\x00/\xe86\x125\xa0\xbf\x89\xad\x8dl\xc4H\xf1?'
tbsg43
(lp1816
sbassI17
(dp1817
g15
(lp1818
g8
(g17
g10
NtRp1819
(dp1820
g20
g8
(g21
g10
NtRp1821
(dp1822
g24
g211
sg26
I1
sg27
F0.40000000000000002
sg28
S'A'
sg29
S'H'
sg30
g31
sg32
g212
sg34
F1.0079
sg35
g213
sbsg37
g38
(g39
(I0
tS'b'
tRp1823
(I1
(I3
tg42
I00
S'\x90|\t\xc5\xefU\xfb? \x12k\xc3\xe2\xfd\xdb\xbf\x10\xc2\x9b\xe0sw\xf2\xbf'
tbsg43
(lp1824
sbassI18
(dp1825
g15
(lp1826
g8
(g17
g10
NtRp1827
(dp1828
g20
g8
(g21
g10
NtRp1829
(dp1830
g24
g222
sg26
I1
sg27
F0.40000000000000002
sg28
S'A'
sg29
S'H'
sg30
g31
sg32
g223
sg34
F1.0079
sg35
g224
sbsg37
g38
(g39
(I0
tS'b'
tRp1831
(I1
(I3
tg42
I00
S'\tvz\x86(\xb9\x02@\x06_\xc4y\xf8\xd8\xfb?cW\r\xd6\x06\r\xfb\xbf'
tbsg43
(lp1832
sbassI19
(dp1833
g15
(lp1834
g8
(g17
g10
NtRp1835
(dp1836
g20
g8
(g21
g10
NtRp1837
(dp1838
g24
g233
sg26
I1
sg27
F0.10000000000000001
sg28
S'A'
sg29
S'H'
sg30
g31
sg32
S'H'
sg34
F1.0079
sg35
g234
sbsg37
g38
(g39
(I0
tS'b'
tRp1839
(I1
(I3
tg42
I00
S'F\xaeJ\x08\xc6\xa8\x05\xc0\x0b.\x14\xc8\xb2\x8d\x06@/\xe85l\x14|\xfa\xbf'
tbsg43
(lp1840
sbassI20
(dp1841
g15
(lp1842
g8
(g17
g10
NtRp1843
(dp1844
g20
g8
(g21
g10
NtRp1845
(dp1846
g24
g243
sg26
I1
sg27
F0.10000000000000001
sg28
S'A'
sg29
S'H'
sg30
g31
sg32
S'H'
sg34
F1.0079
sg35
g244
sbsg37
g38
(g39
(I0
tS'b'
tRp1847
(I1
(I3
tg42
I00
S'\xe2\n\x83\x0c+@\x0b\xc0\xab\x90\x8b-!`\x03@\xbeq\xcf\n\xee\xf0\x9d\xbf'
tbsg43
(lp1848
sbassI21
(dp1849
g15
(lp1850
g8
(g17
g10
NtRp1851
(dp1852
g20
g8
(g21
g10
NtRp1853
(dp1854
g24
g253
sg26
I1
sg27
F0.40000000000000002
sg28
S'A'
sg29
S'H'
sg30
g31
sg32
g254
sg34
F1.0079
sg35
g255
sbsg37
g38
(g39
(I0
tS'b'
tRp1855
(I1
(I3
tg42
I00
S'\x9dc:W\x7f\xeb\x01\xc0\xd8\x00m\xac\x84\xdb\xda?\x88\x9ce\xb9\x8e\xb6\xf9\xbf'
tbsg43
(lp1856
sbassI64
(dp1857
g15
(lp1858
g8
(g17
g10
NtRp1859
(dp1860
g20
g8
(g21
g10
NtRp1861
(dp1862
g24
S'C100'
p1863
sg26
I1
sg27
F0.34999999999999998
sg28
S'A'
sg29
S'C'
sg30
g31
sg32
S'C3'
p1864
sg34
F12.0107
sg35
S'Carbon'
p1865
sbsg37
g38
(g39
(I0
tS'b'
tRp1866
(I1
(I3
tg42
I00
S'\x10\xa9\xbf\xe9\xa5\x83\xb7\xbfR\xbe\x01di\xa8\x15@\xd0py\ti\xd7\xe4\xbf'
tbsg43
(lp1867
sbassI65
(dp1868
g15
(lp1869
g8
(g17
g10
NtRp1870
(dp1871
g20
g8
(g21
g10
NtRp1872
(dp1873
g24
S'C200'
p1874
sg26
I1
sg27
F0.14999999999999999
sg28
S'A'
sg29
S'C'
sg30
g31
sg32
S'C3'
p1875
sg34
F12.0107
sg35
S'Carbon'
p1876
sbsg37
g38
(g39
(I0
tS'b'
tRp1877
(I1
(I3
tg42
I00
S'r+7 \x82\x87\xf5\xbf\xe6\x07\xcb[\t\x89\x18@\x0f4\x19\xbbs\xc2\xda\xbf'
tbsg43
(lp1878
sbassI66
(dp1879
g15
(lp1880
g8
(g17
g10
NtRp1881
(dp1882
g20
g8
(g21
g10
NtRp1883
(dp1884
g24
S'H140'
p1885
sg26
I1
sg27
F0.10000000000000001
sg28
S'A'
sg29
S'H'
sg30
g31
sg32
S'H'
sg34
F1.0079
sg35
S'Hydrogen'
p1886
sbsg37
g38
(g39
(I0
tS'b'
tRp1887
(I1
(I3
tg42
I00
S'\xf0\x82\x82\x85\xdf\x94\x00\xc0\xb6\xe7nH\xfb-\x17@!\xed\x1a\xd6\xec(\xf3\xbf'
tbsg43
(lp1888
sbassI67
(dp1889
g15
(lp1890
g8
(g17
g10
NtRp1891
(dp1892
g20
g8
(g21
g10
NtRp1893
(dp1894
g24
S'O200'
p1895
sg26
I1
sg27
F-0.65000000000000002
sg28
S'A'
sg29
S'O'
sg30
g31
sg32
S'O3'
p1896
sg34
F15.9994
sg35
S'Oxygen'
p1897
sbsg37
g38
(g39
(I0
tS'b'
tRp1898
(I1
(I3
tg42
I00
S'\x8279\xca\x02m\xfc\xbf\xee\x08gA\xb9\xa6\x16@BR\xf8\x10\x1f\xcb\xea?'
tbsg43
(lp1899
sbassI68
(dp1900
g15
(lp1901
g8
(g17
g10
NtRp1902
(dp1903
g20
g8
(g21
g10
NtRp1904
(dp1905
g24
S'C300'
p1906
sg26
I1
sg27
F0.14999999999999999
sg28
S'A'
sg29
S'C'
sg30
g31
sg32
S'C3'
p1907
sg34
F12.0107
sg35
S'Carbon'
p1908
sbsg37
g38
(g39
(I0
tS'b'
tRp1909
(I1
(I3
tg42
I00
S'\xfa\xd97\x08\x08X\xf6\xbf`\xa4\xba&Mu\x1e@_=AV\xf7K\xd5\xbf'
tbsg43
(lp1910
sbassI69
(dp1911
g15
(lp1912
g8
(g17
g10
NtRp1913
(dp1914
g20
g8
(g21
g10
NtRp1915
(dp1916
g24
S'H150'
p1917
sg26
I1
sg27
F0.10000000000000001
sg28
S'A'
sg29
S'H'
sg30
g31
sg32
S'H'
sg34
F1.0079
sg35
S'Hydrogen'
p1918
sbsg37
g38
(g39
(I0
tS'b'
tRp1919
(I1
(I3
tg42
I00
S'Z;\xc5\x813S\xfe\xbf\xac\xc2\xea`\x1d\xc5\x1f@c\xcc\xa9\x88\xf9-\xf4\xbf'
tbsg43
(lp1920
sbassI70
(dp1921
g15
(lp1922
g8
(g17
g10
NtRp1923
(dp1924
g20
g8
(g21
g10
NtRp1925
(dp1926
g24
S'O300'
p1927
sg26
I1
sg27
F-0.65000000000000002
sg28
S'A'
sg29
S'O'
sg30
g31
sg32
S'O3'
p1928
sg34
F15.9994
sg35
S'Oxygen'
p1929
sbsg37
g38
(g39
(I0
tS'b'
tRp1930
(I1
(I3
tg42
I00
S'\x19r\x15*\x99\x11\x02\xc0.mD%\xce\x00\x1f@|\x9d\xb0rZ\xb5\xe8?'
tbsg43
(lp1931
sbassI71
(dp1932
g15
(lp1933
g8
(g17
g10
NtRp1934
(dp1935
g20
g8
(g21
g10
NtRp1936
(dp1937
g24
S'C400'
p1938
sg26
I1
sg27
F0.14999999999999999
sg28
S'A'
sg29
S'C'
sg30
g31
sg32
S'C2'
p1939
sg34
F12.0107
sg35
S'Carbon'
p1940
sbsg37
g38
(g39
(I0
tS'b'
tRp1941
(I1
(I3
tg42
I00
S'X\x93M^\xd8T\xbe\xbf\x05i{\x0c\xbf\xcb @,\x8f8\x9d\xf0\x89\xb2\xbf'
tbsg43
(lp1942
sbassI72
(dp1943
g15
(lp1944
g8
(g17
g10
NtRp1945
(dp1946
g20
g8
(g21
g10
NtRp1947
(dp1948
g24
S'H160'
p1949
sg26
I1
sg27
F0.10000000000000001
sg28
S'A'
sg29
S'H'
sg30
g31
sg32
S'H'
sg34
F1.0079
sg35
S'Hydrogen'
p1950
sbsg37
g38
(g39
(I0
tS'b'
tRp1951
(I1
(I3
tg42
I00
S'\xe4a\x8b\xb4\x91\x17\xac\xbf\xb1\x12\xb0_ZP!@\xec\x98\xbaEa\xe2\xef?'
tbsg43
(lp1952
sbassI73
(dp1953
g15
(lp1954
g8
(g17
g10
NtRp1955
(dp1956
g20
g8
(g21
g10
NtRp1957
(dp1958
g24
S'O400'
p1959
sg26
I1
sg27
F-0.59999999999999998
sg28
S'A'
sg29
S'O'
sg30
g31
sg32
S'O2'
p1960
sg34
F15.9994
sg35
S'Oxygen'
p1961
sbsg37
g38
(g39
(I0
tS'b'
tRp1962
(I1
(I3
tg42
I00
S'\x1cK\\\x9fj\x1d\xc2\xbf\x19\x86\x07\xecvO#@|M\x88\xd9\x05\xb2\xeb\xbf'
tbsg43
(lp1963
sbassI74
(dp1964
g15
(lp1965
g8
(g17
g10
NtRp1966
(dp1967
g20
g8
(g21
g10
NtRp1968
(dp1969
g24
S'C500'
p1970
sg26
I1
sg27
F0.10000000000000001
sg28
S'A'
sg29
S'C'
sg30
g31
sg32
S'C2'
p1971
sg34
F12.0107
sg35
S'Carbon'
p1972
sbsg37
g38
(g39
(I0
tS'b'
tRp1973
(I1
(I3
tg42
I00
S'\xae\xbc9y\x9e\xf6\xf1?\x84\x0e\xd9\xe9\xf4<\x1e@s\x0c\x1b\xb9,\xab\xda\xbf'
tbsg43
(lp1974
sbassI75
(dp1975
g15
(lp1976
g8
(g17
g10
NtRp1977
(dp1978
g20
g8
(g21
g10
NtRp1979
(dp1980
g24
S'H170'
p1981
sg26
I1
sg27
F0.10000000000000001
sg28
S'A'
sg29
S'H'
sg30
g31
sg32
S'H'
sg34
F1.0079
sg35
S'Hydrogen'
p1982
sbsg37
g38
(g39
(I0
tS'b'
tRp1983
(I1
(I3
tg42
I00
S'\xec\xfbX\x92\xc4\x94\xff?\xd6Hr\x8b~\xcc\x1f@\n=\xab`\xc4\xdb\xc7?'
tbsg43
(lp1984
sbassI76
(dp1985
g15
(lp1986
g8
(g17
g10
NtRp1987
(dp1988
g20
g8
(g21
g10
NtRp1989
(dp1990
g24
S'O500'
p1991
sg26
I1
sg27
F-0.5
sg28
S'A'
sg29
S'O'
sg30
g31
sg32
S'O2'
p1992
sg34
F15.9994
sg35
S'Oxygen'
p1993
sbsg37
g38
(g39
(I0
tS'b'
tRp1994
(I1
(I3
tg42
I00
S'SZ\x02\x07\xca\xb0\xef?~\xb9\xa9#\xfd\x9b\x18@s\xec4\x9a\xda\x15\xa1\xbf'
tbsg43
(lp1995
sbassI77
(dp1996
g15
(lp1997
g8
(g17
g10
NtRp1998
(dp1999
g20
g8
(g21
g10
NtRp2000
(dp2001
g24
S'C600'
p2002
sg26
I1
sg27
F0.050000000000000003
sg28
S'A'
sg29
S'C'
sg30
g31
sg32
S'C3'
p2003
sg34
F12.0107
sg35
S'Carbon'
p2004
sbsg37
g38
(g39
(I0
tS'b'
tRp2005
(I1
(I3
tg42
I00
S'\xd4|2\xe3\xcb\x9e\xf8?\x90\x94;\x17\xdb;\x1e@\t\x12>n\xe6u\xfd\xbf'
tbsg43
(lp2006
sbassI78
(dp2007
g15
(lp2008
g8
(g17
g10
NtRp2009
(dp2010
g20
g8
(g21
g10
NtRp2011
(dp2012
g24
S'O600'
p2013
sg26
I1
sg27
F-0.65000000000000002
sg28
S'A'
sg29
S'O'
sg30
g31
sg32
S'O3'
p2014
sg34
F15.9994
sg35
S'Oxygen'
p2015
sbsg37
g38
(g39
(I0
tS'b'
tRp2016
(I1
(I3
tg42
I00
S'\xb4\xd3\xeb\x0b2\x92\x01@\x96\xb2j\x00\xf3L\x19@\xc9A1K\xa2w\x00\xc0'
tbsg43
(lp2017
sbassI79
(dp2018
g15
(lp2019
g8
(g17
g10
NtRp2020
(dp2021
g20
g8
(g21
g10
NtRp2022
(dp2023
g24
S'H180'
p2024
sg26
I1
sg27
F0.10000000000000001
sg28
S'A'
sg29
S'H'
sg30
g31
sg32
S'H'
sg34
F1.0079
sg35
S'Hydrogen'
p2025
sbsg37
g38
(g39
(I0
tS'b'
tRp2026
(I1
(I3
tg42
I00
S'\x9cO\x0e$L\x8b\xb4?\xf6Sr\xcaw\xdb\x14@\xe7\xbb\xb0\x9f-\xd1\xfb\xbf'
tbsg43
(lp2027
sbassI80
(dp2028
g15
(lp2029
g8
(g17
g10
NtRp2030
(dp2031
g20
g8
(g21
g10
NtRp2032
(dp2033
g24
S'H190'
p2034
sg26
I1
sg27
F0.40000000000000002
sg28
S'A'
sg29
S'H'
sg30
g31
sg32
S'HO'
p2035
sg34
F1.0079
sg35
S'Hydrogen'
p2036
sbsg37
g38
(g39
(I0
tS'b'
tRp2037
(I1
(I3
tg42
I00
S'\xad\x99Z\xadM\xc9\xef\xbf~y\r\xbf\x15\xd6\x14@\x83\xbd\xff\xa98\xfb\xf2?'
tbsg43
(lp2038
sbassI81
(dp2039
g15
(lp2040
g8
(g17
g10
NtRp2041
(dp2042
g20
g8
(g21
g10
NtRp2043
(dp2044
g24
S'H210'
p2045
sg26
I1
sg27
F0.40000000000000002
sg28
S'A'
sg29
S'H'
sg30
g31
sg32
S'HO'
p2046
sg34
F1.0079
sg35
S'Hydrogen'
p2047
sbsg37
g38
(g39
(I0
tS'b'
tRp2048
(I1
(I3
tg42
I00
S'\xa5\x82\xe1\xa1 L\x05\xc0\xa6\x82>\x18\x7f|\x1b@P\x8fG!\xc5\xef\xea?'
tbsg43
(lp2049
sbassI82
(dp2050
g15
(lp2051
g8
(g17
g10
NtRp2052
(dp2053
g20
g8
(g21
g10
NtRp2054
(dp2055
g24
S'H110'
p2056
sg26
I1
sg27
F0.10000000000000001
sg28
S'A'
sg29
S'H'
sg30
g31
sg32
S'H'
sg34
F1.0079
sg35
S'Hydrogen'
p2057
sbsg37
g38
(g39
(I0
tS'b'
tRp2058
(I1
(I3
tg42
I00
S'\xd59\xe3\x86\x97\x06\x02@\x8c\x7f\x10\xbd<\xc8 @\xa1\x0cG\xa6\x02M\x00\xc0'
tbsg43
(lp2059
sbassI83
(dp2060
g15
(lp2061
g8
(g17
g10
NtRp2062
(dp2063
g20
g8
(g21
g10
NtRp2064
(dp2065
g24
S'H120'
p2066
sg26
I1
sg27
F0.10000000000000001
sg28
S'A'
sg29
S'H'
sg30
g31
sg32
S'H'
sg34
F1.0079
sg35
S'Hydrogen'
p2067
sbsg37
g38
(g39
(I0
tS'b'
tRp2068
(I1
(I3
tg42
I00
S'\x95\xd8\x89x\x94j\xe5?:\x9f\x04\xa1\xa0\xa3\x1e@\xde\xb1\x04_\xb5,\x04\xc0'
tbsg43
(lp2069
sbassI84
(dp2070
g15
(lp2071
g8
(g17
g10
NtRp2072
(dp2073
g20
g8
(g21
g10
NtRp2074
(dp2075
g24
S'H130'
p2076
sg26
I1
sg27
F0.40000000000000002
sg28
S'A'
sg29
S'H'
sg30
g31
sg32
S'HO'
p2077
sg34
F1.0079
sg35
S'Hydrogen'
p2078
sbsg37
g38
(g39
(I0
tS'b'
tRp2079
(I1
(I3
tg42
I00
S'\x9aE\xeb\xff\x1c5\x01@:j2\xafO\x84\x17@u\xcb\xf0\x0b\xa9>\xf3\xbf'
tbsg43
(lp2080
sbassI85
(dp2081
g15
(lp2082
g8
(g17
g10
NtRp2083
(dp2084
g20
g8
(g21
g10
NtRp2085
(dp2086
g24
S'H'
sg26
I1
sg27
F0.10000000000000001
sg28
S'A'
sg29
S'H'
sg30
S'ELT'
p2087
sg32
S'H'
sg34
F1.0079400000000001
sg35
S'H'
sbsg37
g38
(g39
(I0
tS'b'
tRp2088
(I1
(I3
tg42
I00
S'\xa5r)\xa9+\xc7\xbc?@8\xe5\xa7\x99]\xc3?\xedC\x93;`F\xf3\xbf'
tbsg43
(lp2089
sbassI86
(dp2090
g15
(lp2091
g8
(g17
g10
NtRp2092
(dp2093
g20
g8
(g21
g10
NtRp2094
(dp2095
g24
S'H'
sg26
I1
sg27
F0.10000000000000001
sg28
S'A'
sg29
S'H'
sg30
g2087
sg32
S'H'
sg34
F1.0079400000000001
sg35
S'H'
sbsg37
g38
(g39
(I0
tS'b'
tRp2096
(I1
(I3
tg42
I00
S'\xc3\xb24\x0c\x1c\xf5\xb7?\xe1\x94\x9ffvM&@\xfdK3\x8e\xf2\x1b\xc2?'
tbsg43
(lp2097
sbasssg435
(dp2098
sg437
I00
sg438
(lp2099
(lp2100
I1
aI0
aI0
aI0
aa(lp2101
I0
aI1
aI0
aI0
aa(lp2102
I0
aI0
aI1
aI0
aa(lp2103
I0
aI0
aI0
aI1
aasg444
(dp2104
sg32
S'Cellulose_1'
p2105
sg447
(dp2106
I1
(dp2107
I16
(dp2108
sI2
(dp2109
sI13
(dp2110
sI85
(dp2111
ssI2
(dp2112
I1
g2109
sI3
(dp2113
sI4
(dp2114
sI5
(dp2115
ssI3
(dp2116
I2
g2113
ssI4
(dp2117
I17
(dp2118
sI2
g2114
ssI5
(dp2119
I8
(dp2120
sI2
g2115
sI6
(dp2121
sI7
(dp2122
ssI6
(dp2123
I5
g2121
ssI7
(dp2124
I18
(dp2125
sI5
g2122
ssI8
(dp2126
I9
(dp2127
sI10
(dp2128
sI11
(dp2129
sI5
g2120
ssI9
(dp2130
I8
g2127
ssI10
(dp2131
I8
g2128
sI64
(dp2132
ssI11
(dp2133
I8
g2129
sI12
(dp2134
sI13
(dp2135
sI14
(dp2136
ssI12
(dp2137
I11
g2134
ssI13
(dp2138
I1
g2110
sI11
g2135
ssI14
(dp2139
I11
g2136
sI19
(dp2140
sI20
(dp2141
sI15
(dp2142
ssI15
(dp2143
I21
(dp2144
sI14
g2142
ssI16
(dp2145
I1
g2108
ssI17
(dp2146
I4
g2118
ssI18
(dp2147
I7
g2125
ssI19
(dp2148
I14
g2140
ssI20
(dp2149
I14
g2141
ssI21
(dp2150
I15
g2144
ssI64
(dp2151
I65
(dp2152
sI10
g2132
sI76
(dp2153
sI79
(dp2154
ssI65
(dp2155
I64
g2152
sI66
(dp2156
sI67
(dp2157
sI68
(dp2158
ssI66
(dp2159
I65
g2156
ssI67
(dp2160
I80
(dp2161
sI65
g2157
ssI68
(dp2162
I65
g2158
sI69
(dp2163
sI70
(dp2164
sI71
(dp2165
ssI69
(dp2166
I68
g2163
ssI70
(dp2167
I81
(dp2168
sI68
g2164
ssI71
(dp2169
I72
(dp2170
sI73
(dp2171
sI74
(dp2172
sI68
g2165
ssI72
(dp2173
I71
g2170
ssI73
(dp2174
I86
(dp2175
sI71
g2171
ssI74
(dp2176
I75
(dp2177
sI76
(dp2178
sI77
(dp2179
sI71
g2172
ssI75
(dp2180
I74
g2177
ssI76
(dp2181
I64
g2153
sI74
g2178
ssI77
(dp2182
I74
g2179
sI83
(dp2183
sI82
(dp2184
sI78
(dp2185
ssI78
(dp2186
I84
(dp2187
sI77
g2185
ssI79
(dp2188
I64
g2154
ssI80
(dp2189
I67
g2161
ssI81
(dp2190
I70
g2168
ssI82
(dp2191
I77
g2184
ssI83
(dp2192
I77
g2183
ssI84
(dp2193
I78
g2187
ssI85
(dp2194
I1
g2111
ssI86
(dp2195
I73
g2175
sssg536
g8
(g537
g10
NtRp2196
(dp2197
g540
(dp2198
sg542
(dp2199
sg544
(dp2200
sg546
g547
sg548
(dp2201
g552
(lp2202
F222.5
aF1.5
asg556
(lp2203
F309
aF1.111
asg559
(lp2204
F428
aF1.4199999999999999
asg562
(lp2205
F428
aF1.4199999999999999
asg566
(lp2206
F222.5
aF1.5
asg570
(lp2207
F309
aF1.111
asg574
(lp2208
F545
aF0.95999999999999996
asg577
(lp2209
F428
aF1.4199999999999999
asg579
(lp2210
F428
aF1.4199999999999999
asg610
(lp2211
F428
aF1.4199999999999999
asg584
(lp2212
F222.5
aF1.5
asg587
(lp2213
F309
aF1.111
asg589
(lp2214
F222.5
aF1.5
asg591
(lp2215
F428
aF1.4199999999999999
asg594
(lp2216
F309
aF1.111
as(g25
S'H'
tp2217
(lp2218
F309
aF1.111
asg597
(lp2219
F545
aF0.95999999999999996
asg615
(lp2220
F428
aF1.4199999999999999
asg603
(lp2221
F545
aF0.95999999999999996
asg606
(lp2222
F309
aF1.111
asg608
(lp2223
F222.5
aF1.5
asg582
(lp2224
F309
aF1.111
asg613
(lp2225
F309
aF1.111
as(S'H'
g1959
tp2226
(lp2227
F545
aF0.95999999999999996
assg617
(dp2228
(S'H'
g25
g168
tp2229
(lp2230
F76.739999999999995
aF107.23999999999999
asg619
(lp2231
F78.195999999999998
aF108.89
asg621
(lp2232
F91.787999999999997
aF111
asg623
(lp2233
F119.044
aF106
asg625
(lp2234
F79.373999999999995
aF110.09999999999999
asg627
(lp2235
F78.195999999999998
aF108.89
asg629
(lp2236
F119.044
aF106
asg631
(lp2237
F113.39100000000001
aF110.09999999999999
asg633
(lp2238
F91.787999999999997
aF111
asg635
(lp2239
F79.373999999999995
aF110.09999999999999
asg637
(lp2240
F79.373999999999995
aF110.09999999999999
asg639
(lp2241
F113.39100000000001
aF110.09999999999999
asg641
(lp2242
F107.179
aF105
asg643
(lp2243
F107.179
aF105
asg645
(lp2244
F79.373999999999995
aF110.09999999999999
asg647
(lp2245
F79.373999999999995
aF110.09999999999999
asg649
(lp2246
F78.299000000000007
aF109
asg651
(lp2247
F107.179
aF105
asg653
(lp2248
F76.739999999999995
aF107.23999999999999
asg655
(lp2249
F214.084
aF111.55
asg657
(lp2250
F131.929
aF107.5
asg659
(lp2251
F131.929
aF107.5
asg661
(lp2252
F113.39100000000001
aF110.09999999999999
asg663
(lp2253
F79.373999999999995
aF110.09999999999999
asg665
(lp2254
F79.373999999999995
aF110.09999999999999
asg667
(lp2255
F79.373999999999995
aF110.09999999999999
asg669
(lp2256
F119.044
aF106
asg671
(lp2257
F91.787999999999997
aF111
asg673
(lp2258
F76.739999999999995
aF107.23999999999999
asg675
(lp2259
F113.39100000000001
aF110.09999999999999
asg677
(lp2260
F79.373999999999995
aF110.09999999999999
asg679
(lp2261
F107.179
aF105
asg681
(lp2262
F78.195999999999998
aF108.89
asg683
(lp2263
F76.739999999999995
aF107.23999999999999
asg685
(lp2264
F113.39100000000001
aF110.09999999999999
asg687
(lp2265
F91.787999999999997
aF111
asg689
(lp2266
F107.179
aF105
asg691
(lp2267
F107.179
aF105
asg693
(lp2268
F79.373999999999995
aF110.09999999999999
asg695
(lp2269
F76.739999999999995
aF107.23999999999999
asg697
(lp2270
F78.195999999999998
aF108.89
asg699
(lp2271
F79.373999999999995
aF110.09999999999999
assg701
(dp2272
g573
(lp2273
F-0.19209999999999999
aF1.7649999999999999
aF-0.65000000000000002
asg568
(lp2274
F-0.032000000000000001
aF2
aF0.050000000000000003
asg602
(lp2275
F-0.19209999999999999
aF1.7649999999999999
aF-0.65000000000000002
asg605
(lp2276
F-0.044999999999999998
aF1.3400000000000001
aF0.10000000000000001
asg550
(lp2277
F-0.032000000000000001
aF2
aF0.14999999999999999
asg586
(lp2278
F-0.044999999999999998
aF1.3400000000000001
aF0.10000000000000001
asg564
(lp2279
F-0.032000000000000001
aF2
aF0.14999999999999999
asg551
(lp2280
F-0.032000000000000001
aF2
aF0.10000000000000001
asg612
(lp2281
F-0.044999999999999998
aF1.3400000000000001
aF0.10000000000000001
asg555
(lp2282
F-0.044999999999999998
aF1.3400000000000001
aF0.10000000000000001
asg561
(lp2283
F-0.19209999999999999
aF1.7649999999999999
aF-0.5
asS'H'
(lp2284
F-0.029999999999999999
aF1.3582000000000001
aF0
asg593
(lp2285
F-0.044999999999999998
aF1.3400000000000001
aF0.10000000000000001
asg572
(lp2286
F-0.045999999999999999
aF0.22450000000000001
aF0.40000000000000002
asg558
(lp2287
F-0.19209999999999999
aF1.7649999999999999
aF-0.40000000000000002
asg581
(lp2288
F-0.044999999999999998
aF1.3400000000000001
aF0.10000000000000001
asg569
(lp2289
F-0.044999999999999998
aF1.3400000000000001
aF0.10000000000000001
asg601
(lp2290
F-0.045999999999999999
aF0.22450000000000001
aF0.40000000000000002
asg565
(lp2291
F-0.032000000000000001
aF2
aF0.14999999999999999
asg596
(lp2292
F-0.045999999999999999
aF0.22450000000000001
aF0.40000000000000002
asg576
(lp2293
F-0.19209999999999999
aF1.7649999999999999
aF-0.65000000000000002
asg554
(lp2294
F-0.032000000000000001
aF2
aF0.34999999999999998
assg725
g726
sg727
(dp2295
g729
(lp2296
F0.59999999999999998
aI1
aF180
asg731
(lp2297
F0.10000000000000001
aI3
aF3.1400000000000001
asg733
(lp2298
F0.14999999999999999
aI3
aF180
asg735
(lp2299
F0.14999999999999999
aI3
aF3.1400000000000001
asg737
(lp2300
F-1.8400000000000001
aI1
aF180
asg739
(lp2301
F0.14999999999999999
aI3
aF180
asg741
(lp2302
F-1.1499999999999999
aI1
aF180
asg743
(lp2303
F0.14999999999999999
aI3
aF3.1400000000000001
asg745
(lp2304
F0.14999999999999999
aI3
aF180
asg747
(lp2305
F0.59999999999999998
aI1
aF180
asg749
(lp2306
F0.14999999999999999
aI3
aF3.1400000000000001
asg751
(lp2307
F0.14999999999999999
aI3
aF180
asg753
(lp2308
F0.82999999999999996
aI1
aF180
asg755
(lp2309
F-1.6299999999999999
aI1
aF180
asg757
(lp2310
F0.14000000000000001
aI3
aF3.1400000000000001
asg759
(lp2311
F0.14999999999999999
aI3
aF3.1400000000000001
asg761
(lp2312
F0.14000000000000001
aI3
aF180
asg763
(lp2313
F0.14999999999999999
aI3
aF180
asg765
(lp2314
F0.14999999999999999
aI3
aF3.1400000000000001
asg767
(lp2315
F0.14000000000000001
aI3
aF180
asg769
(lp2316
F0.14999999999999999
aI3
aF180
asg771
(lp2317
F0.14999999999999999
aI3
aF180
asg773
(lp2318
F-1.8400000000000001
aI1
aF3.1400000000000001
asg775
(lp2319
F0.14999999999999999
aI3
aF180
asg777
(lp2320
F0.14000000000000001
aI3
aF3.1400000000000001
asg779
(lp2321
F0.14999999999999999
aI3
aF180
asg781
(lp2322
F0.14999999999999999
aI3
aF180
asg783
(lp2323
F0.14999999999999999
aI3
aF180
asg785
(lp2324
F0.82999999999999996
aI1
aF3.1400000000000001
asg787
(lp2325
F0.14000000000000001
aI3
aF3.1400000000000001
asg789
(lp2326
F0.14999999999999999
aI3
aF3.1400000000000001
asg791
(lp2327
F0.14000000000000001
aI3
aF180
asg793
(lp2328
F0.14999999999999999
aI3
aF180
asg795
(lp2329
F0.14000000000000001
aI3
aF180
asg797
(lp2330
F0.14000000000000001
aI3
aF180
asg799
(lp2331
F0.14999999999999999
aI3
aF180
as(g1863
g136
g115
g83
tp2332
(lp2333
F0.59999999999999998
aF1
aF180
asg803
(lp2334
F0.14000000000000001
aI3
aF180
asg805
(lp2335
F0.14999999999999999
aI3
aF3.1400000000000001
asg807
(lp2336
F0.14999999999999999
aI3
aF180
asg809
(lp2337
F-1.1499999999999999
aI1
aF180
asg811
(lp2338
F0.82999999999999996
aI1
aF180
asg813
(lp2339
F0.14999999999999999
aI3
aF180
asg815
(lp2340
F-1.8400000000000001
aI1
aF180
asg817
(lp2341
F0
aI0
aF0
asg819
(lp2342
F0.14999999999999999
aI3
aF180
asg821
(lp2343
F-1.8400000000000001
aI1
aF180
asg823
(lp2344
F0.14999999999999999
aI3
aF180
asg825
(lp2345
F0.14999999999999999
aI3
aF180
asg827
(lp2346
F0
aI0
aF0
asg829
(lp2347
F0.14999999999999999
aI3
aF180
asg831
(lp2348
F0.59999999999999998
aI1
aF180
asg833
(lp2349
F0.14999999999999999
aI3
aF180
asg835
(lp2350
F0.14999999999999999
aI3
aF180
asg837
(lp2351
F0.59999999999999998
aI1
aF180
asg839
(lp2352
F0.14999999999999999
aI3
aF180
asg841
(lp2353
F0.14999999999999999
aI3
aF180
asg843
(lp2354
F0.14999999999999999
aI3
aF180
asg845
(lp2355
F0.14999999999999999
aI3
aF3.1400000000000001
asg847
(lp2356
F0.14999999999999999
aI3
aF3.1400000000000001
asg849
(lp2357
F0.14000000000000001
aI3
aF180
asg851
(lp2358
F0.14999999999999999
aI3
aF3.1400000000000001
asg853
(lp2359
F0.14999999999999999
aI3
aF180
assbsg855
g2106
sbassS'Cellulose_b_1'
p2360
(dp2361
g6
(lp2362
g8
(g9
g10
NtRp2363
(dp2364
g2
(dp2365
I1
(dp2366
g15
(lp2367
g8
(g17
g10
NtRp2368
(dp2369
g20
g8
(g21
g10
NtRp2370
(dp2371
g24
g25
sg26
I1
sg27
F0.34999999999999998
sg28
S'A'
sg29
S'C'
sg30
g31
sg32
g33
sg34
F12.0107
sg35
g36
sbsg37
g38
(g39
(I0
tS'b'
tRp2372
(I1
(I3
tg42
I00
S"f\xbd\x84'AI\xb5?\x00\xa2t\x91\xd6\x14\xb8?o\xb7\xb9\xe5>K\xcc\xbf"
tbsg43
(lp2373
sbassI2
(dp2374
g15
(lp2375
g8
(g17
g10
NtRp2376
(dp2377
g20
g8
(g21
g10
NtRp2378
(dp2379
g24
g51
sg26
I1
sg27
F0.14999999999999999
sg28
S'A'
sg29
S'C'
sg30
g31
sg32
g52
sg34
F12.0107
sg35
g53
sbsg37
g38
(g39
(I0
tS'b'
tRp2380
(I1
(I3
tg42
I00
S'\xea\x95>\x8b\xbd\xf1\xf1\xbf \xd4\xdb\xaa\xbf\x01\xf0?\xbb\xa5\x87\xef\xa3h\xc3\xbf'
tbsg43
(lp2381
sbassI3
(dp2382
g15
(lp2383
g8
(g17
g10
NtRp2384
(dp2385
g20
g8
(g21
g10
NtRp2386
(dp2387
g24
g62
sg26
I1
sg27
F0.10000000000000001
sg28
S'A'
sg29
S'H'
sg30
g31
sg32
S'H'
sg34
F1.0079
sg35
g63
sbsg37
g38
(g39
(I0
tS'b'
tRp2388
(I1
(I3
tg42
I00
S'\x12\xc2Z\xca\x85\xa1\xfa\xbf\xc0\x08Jvp{\xee?\xb3\x17\x95\xf5/\xf3\xf1\xbf'
tbsg43
(lp2389
sbassI4
(dp2390
g15
(lp2391
g8
(g17
g10
NtRp2392
(dp2393
g20
g8
(g21
g10
NtRp2394
(dp2395
g24
g72
sg26
I1
sg27
F-0.65000000000000002
sg28
S'A'
sg29
S'O'
sg30
g31
sg32
g73
sg34
F15.9994
sg35
g74
sbsg37
g38
(g39
(I0
tS'b'
tRp2396
(I1
(I3
tg42
I00
S'\xfc8#?\x85\xf3\xfe\xbf\x00\x93\xa1\n\xc7\x82\xdb?\xb4\xc1c\x08\x915\xeb?'
tbsg43
(lp2397
sbassI5
(dp2398
g15
(lp2399
g8
(g17
g10
NtRp2400
(dp2401
g20
g8
(g21
g10
NtRp2402
(dp2403
g24
g83
sg26
I1
sg27
F0.14999999999999999
sg28
S'A'
sg29
S'C'
sg30
g31
sg32
g84
sg34
F12.0107
sg35
g85
sbsg37
g38
(g39
(I0
tS'b'
tRp2404
(I1
(I3
tg42
I00
S'\x17\x8e\x88\xf9y\xe6\xee\xbf\xec\x15\xd1BW\x97\x03@\xac\xffCe\x89d\xd1?'
tbsg43
(lp2405
sbassI6
(dp2406
g15
(lp2407
g8
(g17
g10
NtRp2408
(dp2409
g20
g8
(g21
g10
NtRp2410
(dp2411
g24
g94
sg26
I1
sg27
F0.10000000000000001
sg28
S'A'
sg29
S'H'
sg30
g31
sg32
S'H'
sg34
F1.0079
sg35
g95
sbsg37
g38
(g39
(I0
tS'b'
tRp2412
(I1
(I3
tg42
I00
S'*\xb7\\\x92\xd5\xe7\xf6\xbf\xec\xf9\x89\x05\x90\xc0\x08@.\x0f\xe7Y\x19\x14\xe0\xbf'
tbsg43
(lp2413
sbassI7
(dp2414
g15
(lp2415
g8
(g17
g10
NtRp2416
(dp2417
g20
g8
(g21
g10
NtRp2418
(dp2419
g24
g104
sg26
I1
sg27
F-0.65000000000000002
sg28
S'A'
sg29
S'O'
sg30
g31
sg32
g105
sg34
F15.9994
sg35
g106
sbsg37
g38
(g39
(I0
tS'b'
tRp2420
(I1
(I3
tg42
I00
S'(\xf2$\xe2\x08\xd0\xfb\xbf\x8c\t\x17\xd3\x86\x8e\x04@n\xefI\x90\xd4\x1d\xf7?'
tbsg43
(lp2421
sbassI8
(dp2422
g15
(lp2423
g8
(g17
g10
NtRp2424
(dp2425
g20
g8
(g21
g10
NtRp2426
(dp2427
g24
g115
sg26
I1
sg27
F0.14999999999999999
sg28
S'A'
sg29
S'C'
sg30
g31
sg32
g116
sg34
F12.0107
sg35
g117
sbsg37
g38
(g39
(I0
tS'b'
tRp2428
(I1
(I3
tg42
I00
S'\xac\xd0j\xa4^F\xdb?\xdc\xb1x\x03\xbd\xa9\x07@8\x95\xac\x987u\xe1?'
tbsg43
(lp2429
sbassI9
(dp2430
g15
(lp2431
g8
(g17
g10
NtRp2432
(dp2433
g20
g8
(g21
g10
NtRp2434
(dp2435
g24
g126
sg26
I1
sg27
F0.10000000000000001
sg28
S'A'
sg29
S'H'
sg30
g31
sg32
S'H'
sg34
F1.0079
sg35
g127
sbsg37
g38
(g39
(I0
tS'b'
tRp2436
(I1
(I3
tg42
I00
S'z\xc1^"ST\xe2?\xec\x05\xbd+\xab\x9a\t@m\xc0d\xfb\x1a\xe7\xf9?'
tbsg43
(lp2437
sbassI10
(dp2438
g15
(lp2439
g8
(g17
g10
NtRp2440
(dp2441
g20
g8
(g21
g10
NtRp2442
(dp2443
g24
g136
sg26
I1
sg27
F-0.5
sg28
S'A'
sg29
S'O'
sg30
g31
sg32
g137
sg34
F15.9994
sg35
g138
sbsg37
g38
(g39
(I0
tS'b'
tRp2444
(I1
(I3
tg42
I00
S'\xcc\xbe4\x7f\xa1\x16\xe1?^\x08X\x1f\xc3\xac\x10@\xf6h\xc2uI\x99\xd0\xbf'
tbsg43
(lp2445
sbassI11
(dp2446
g15
(lp2447
g8
(g17
g10
NtRp2448
(dp2449
g20
g8
(g21
g10
NtRp2450
(dp2451
g24
g147
sg26
I1
sg27
F0.10000000000000001
sg28
S'A'
sg29
S'C'
sg30
g31
sg32
g148
sg34
F12.0107
sg35
g149
sbsg37
g38
(g39
(I0
tS'b'
tRp2452
(I1
(I3
tg42
I00
S'\x14\xe3\xe6\xf1AN\xf7?\xd8\x811\xab+\xe1\xfe?\xe0\xee/y\xd1\xbe\xb2?'
tbsg43
(lp2453
sbassI12
(dp2454
g15
(lp2455
g8
(g17
g10
NtRp2456
(dp2457
g20
g8
(g21
g10
NtRp2458
(dp2459
g24
g158
sg26
I1
sg27
F0.10000000000000001
sg28
S'A'
sg29
S'H'
sg30
g31
sg32
S'H'
sg34
F1.0079
sg35
g159
sbsg37
g38
(g39
(I0
tS'b'
tRp2460
(I1
(I3
tg42
I00
S'F\x9f\xd1%\xa0\xc0\xf7?\xf8\x88\x7f"\x9a\xb1\xfd?*nw7\x16\x90\xf0\xbf'
tbsg43
(lp2461
sbassI13
(dp2462
g15
(lp2463
g8
(g17
g10
NtRp2464
(dp2465
g20
g8
(g21
g10
NtRp2466
(dp2467
g24
g168
sg26
I1
sg27
F-0.40000000000000002
sg28
S'A'
sg29
S'O'
sg30
g31
sg32
g169
sg34
F15.9994
sg35
g170
sbsg37
g38
(g39
(I0
tS'b'
tRp2468
(I1
(I3
tg42
I00
S'\x13\x17\x94\x89P\x02\xf1?@DE\xab\xdad\xe5?\xa2\xa8\x8d\x10\xccF\xe4?'
tbsg43
(lp2469
sbassI14
(dp2470
g15
(lp2471
g8
(g17
g10
NtRp2472
(dp2473
g20
g8
(g21
g10
NtRp2474
(dp2475
g24
g179
sg26
I1
sg27
F0.050000000000000003
sg28
S'A'
sg29
S'C'
sg30
g31
sg32
g180
sg34
F12.0107
sg35
g181
sbsg37
g38
(g39
(I0
tS'b'
tRp2476
(I1
(I3
tg42
I00
S'5\x16\x97\x18\xab\x9a\x06@\xec\x98\xb1\x0c\x8f\xa3\x00@\xeaHa\xe8PJ\xe4?'
tbsg43
(lp2477
sbassI15
(dp2478
g15
(lp2479
g8
(g17
g10
NtRp2480
(dp2481
g20
g8
(g21
g10
NtRp2482
(dp2483
g24
g190
sg26
I1
sg27
F-0.65000000000000002
sg28
S'A'
sg29
S'O'
sg30
g31
sg32
g191
sg34
F15.9994
sg35
g192
sbsg37
g38
(g39
(I0
tS'b'
tRp2484
(I1
(I3
tg42
I00
S'ma\xb7bR\x94\t@\xe0\x96\x0e\xb6\x88\x7f\xe9?#\xd7\r\x07g\xe1\xf1?'
tbsg43
(lp2485
sbassI16
(dp2486
g15
(lp2487
g8
(g17
g10
NtRp2488
(dp2489
g20
g8
(g21
g10
NtRp2490
(dp2491
g24
g201
sg26
I1
sg27
F0.10000000000000001
sg28
S'A'
sg29
S'H'
sg30
g31
sg32
S'H'
sg34
F1.0079
sg35
g202
sbsg37
g38
(g39
(I0
tS'b'
tRp2492
(I1
(I3
tg42
I00
S'\xde\x05I(\xfe5\xde?\x00p\xaf\xa9\xb6m\xa7\xbf\xf0\xf9\x8f\xc6\xac%\xf4\xbf'
tbsg43
(lp2493
sbassI17
(dp2494
g15
(lp2495
g8
(g17
g10
NtRp2496
(dp2497
g20
g8
(g21
g10
NtRp2498
(dp2499
g24
g211
sg26
I1
sg27
F0.40000000000000002
sg28
S'A'
sg29
S'H'
sg30
g31
sg32
g212
sg34
F1.0079
sg35
g213
sbsg37
g38
(g39
(I0
tS'b'
tRp2500
(I1
(I3
tg42
I00
S'v7\x1d\x1fD"\xf9\xbf\x00\xfa\xc3Q\xf7\xe4\xdc\xbfH\xeb2\r\x175\xef?'
tbsg43
(lp2501
sbassI18
(dp2502
g15
(lp2503
g8
(g17
g10
NtRp2504
(dp2505
g20
g8
(g21
g10
NtRp2506
(dp2507
g24
g222
sg26
I1
sg27
F0.40000000000000002
sg28
S'A'
sg29
S'H'
sg30
g31
sg32
g223
sg34
F1.0079
sg35
g224
sbsg37
g38
(g39
(I0
tS'b'
tRp2508
(I1
(I3
tg42
I00
S'\x84S\x84\xb3R\x9f\x01\xc0\xf8$.V3\x9f\xfb?\xfb\n\x0b|\x1e0\xf8?'
tbsg43
(lp2509
sbassI19
(dp2510
g15
(lp2511
g8
(g17
g10
NtRp2512
(dp2513
g20
g8
(g21
g10
NtRp2514
(dp2515
g24
g233
sg26
I1
sg27
F0.10000000000000001
sg28
S'A'
sg29
S'H'
sg30
g31
sg32
S'H'
sg34
F1.0079
sg35
g234
sbsg37
g38
(g39
(I0
tS'b'
tRp2516
(I1
(I3
tg42
I00
S'\xcd\xd0@\xdb\x9b\xc2\x06@\x0c\x11I6\xd0p\x06@\xc9\x9b3\x12,\x9f\xf7?'
tbsg43
(lp2517
sbassI20
(dp2518
g15
(lp2519
g8
(g17
g10
NtRp2520
(dp2521
g20
g8
(g21
g10
NtRp2522
(dp2523
g24
g243
sg26
I1
sg27
F0.10000000000000001
sg28
S'A'
sg29
S'H'
sg30
g31
sg32
S'H'
sg34
F1.0079
sg35
g244
sbsg37
g38
(g39
(I0
tS'b'
tRp2524
(I1
(I3
tg42
I00
S'l-y\xdf\x00Z\x0c@\xacs\xc0\x9b>C\x03@&u\xb8\x0e%)\xc3\xbf'
tbsg43
(lp2525
sbassI21
(dp2526
g15
(lp2527
g8
(g17
g10
NtRp2528
(dp2529
g20
g8
(g21
g10
NtRp2530
(dp2531
g24
g253
sg26
I1
sg27
F0.40000000000000002
sg28
S'A'
sg29
S'H'
sg30
g31
sg32
g254
sg34
F1.0079
sg35
g255
sbsg37
g38
(g39
(I0
tS'b'
tRp2532
(I1
(I3
tg42
I00
S'!\x860*U\x05\x03@\x00\x19\x14\x1ep\xf4\xd9? Pc_\xa6\xd9\xf6?'
tbsg43
(lp2533
sbassI22
(dp2534
g15
(lp2535
g8
(g17
g10
NtRp2536
(dp2537
g20
g8
(g21
g10
NtRp2538
(dp2539
g24
g25
sg26
I1
sg27
F0.34999999999999998
sg28
S'A'
sg29
S'C'
sg30
g31
sg32
g33
sg34
F12.0107
sg35
g36
sbsg37
g38
(g39
(I0
tS'b'
tRp2540
(I1
(I3
tg42
I00
S'P\xc6\x14\x18\xa6m\xe0?P\xde\xa2\x02d\xa4\x15@\xfc\xc6\x12]\xc9\xd2\xe4?'
tbsg43
(lp2541
sbassI23
(dp2542
g15
(lp2543
g8
(g17
g10
NtRp2544
(dp2545
g20
g8
(g21
g10
NtRp2546
(dp2547
g24
g51
sg26
I1
sg27
F0.14999999999999999
sg28
S'A'
sg29
S'C'
sg30
g31
sg32
g52
sg34
F12.0107
sg35
g53
sbsg37
g38
(g39
(I0
tS'b'
tRp2548
(I1
(I3
tg42
I00
S'\xccD\xc1\xa9$}\xfb?\xd0\x00\x14\x93\x80D\x19@~B\x86\x9f"\x9a\xe2?'
tbsg43
(lp2549
sbassI24
(dp2550
g15
(lp2551
g8
(g17
g10
NtRp2552
(dp2553
g20
g8
(g21
g10
NtRp2554
(dp2555
g24
g62
sg26
I1
sg27
F0.10000000000000001
sg28
S'A'
sg29
S'H'
sg30
g31
sg32
S'H'
sg34
F1.0079
sg35
g63
sbsg37
g38
(g39
(I0
tS'b'
tRp2556
(I1
(I3
tg42
I00
S'v\xb8ntv\x16\x02@\xd0L&\xb7~\x13\x19@RDg\xc7,\xd3\xf8?'
tbsg43
(lp2557
sbassI25
(dp2558
g15
(lp2559
g8
(g17
g10
NtRp2560
(dp2561
g20
g8
(g21
g10
NtRp2562
(dp2563
g24
g72
sg26
I1
sg27
F-0.65000000000000002
sg28
S'A'
sg29
S'O'
sg30
g31
sg32
g73
sg34
F15.9994
sg35
g74
sbsg37
g38
(g39
(I0
tS'b'
tRp2564
(I1
(I3
tg42
I00
S'\xff\xf3\xd2.v?\x04@\xf0$\x07\x19=\xfc\x16@\xf1\xd0~\xc9.\xeb\xda\xbf'
tbsg43
(lp2565
sbassI26
(dp2566
g15
(lp2567
g8
(g17
g10
NtRp2568
(dp2569
g20
g8
(g21
g10
NtRp2570
(dp2571
g24
g83
sg26
I1
sg27
F0.14999999999999999
sg28
S'A'
sg29
S'C'
sg30
g31
sg32
g84
sg34
F12.0107
sg35
g85
sbsg37
g38
(g39
(I0
tS'b'
tRp2572
(I1
(I3
tg42
I00
S'\xf0\xf5F\x1b\xa4\xfe\xf8?\xb0\x96\xc5I\xbc\x0f\x1f@\xc5e\t\xc4\xd36\xc4?'
tbsg43
(lp2573
sbassI27
(dp2574
g15
(lp2575
g8
(g17
g10
NtRp2576
(dp2577
g20
g8
(g21
g10
NtRp2578
(dp2579
g24
g94
sg26
I1
sg27
F0.10000000000000001
sg28
S'A'
sg29
S'H'
sg30
g31
sg32
S'H'
sg34
F1.0079
sg35
g95
sbsg37
g38
(g39
(I0
tS'b'
tRp2580
(I1
(I3
tg42
I00
S'\x17\xb3oX\x9e9\x00@Z\x04\x91U,\xd2 @@h\x8b\xfd\x12\xd4\xed?'
tbsg43
(lp2581
sbassI28
(dp2582
g15
(lp2583
g8
(g17
g10
NtRp2584
(dp2585
g20
g8
(g21
g10
NtRp2586
(dp2587
g24
g104
sg26
I1
sg27
F-0.65000000000000002
sg28
S'A'
sg29
S'O'
sg30
g31
sg32
g105
sg34
F15.9994
sg35
g106
sbsg37
g38
(g39
(I0
tS'b'
tRp2588
(I1
(I3
tg42
I00
S'\x8a\xd0S\x00\xb8\xad\x02@\x90\x90\xe8\x11T\x8b\x1f@\xce\xc2w\xbe\xd7=\xf0\xbf'
tbsg43
(lp2589
sbassI29
(dp2590
g15
(lp2591
g8
(g17
g10
NtRp2592
(dp2593
g20
g8
(g21
g10
NtRp2594
(dp2595
g24
g115
sg26
I1
sg27
F0.14999999999999999
sg28
S'A'
sg29
S'C'
sg30
g31
sg32
g116
sg34
F12.0107
sg35
g117
sbsg37
g38
(g39
(I0
tS'b'
tRp2596
(I1
(I3
tg42
I00
S'\xe0\xd6?\xab{\xce\xc5?Z\xb2\x0c\x95w\x8c @\x96\xe0A\xa8\xef\xa9\xbd\xbf'
tbsg43
(lp2597
sbassI30
(dp2598
g15
(lp2599
g8
(g17
g10
NtRp2600
(dp2601
g20
g8
(g21
g10
NtRp2602
(dp2603
g24
g126
sg26
I1
sg27
F0.10000000000000001
sg28
S'A'
sg29
S'H'
sg30
g31
sg32
S'H'
sg34
F1.0079
sg35
g127
sbsg37
g38
(g39
(I0
tS'b'
tRp2604
(I1
(I3
tg42
I00
S'X\x8f\xd3TcO\x98?Z\xc7\x1d\x1f\xb3\x08!@\xe9\x93\x92)\x1e\x07\xf3\xbf'
tbsg43
(lp2605
sbassI31
(dp2606
g15
(lp2607
g8
(g17
g10
NtRp2608
(dp2609
g20
g8
(g21
g10
NtRp2610
(dp2611
g24
g136
sg26
I1
sg27
F-0.5
sg28
S'A'
sg29
S'O'
sg30
g31
sg32
g137
sg34
F15.9994
sg35
g138
sbsg37
g38
(g39
(I0
tS'b'
tRp2612
(I1
(I3
tg42
I00
S'n\xf9\x84\xeee\x01\xb0?\n\x8a\xda\xe3i\xf8"@\xc0\x8d\x85^\x9e\x0c\xe6?'
tbsg43
(lp2613
sbassI32
(dp2614
g15
(lp2615
g8
(g17
g10
NtRp2616
(dp2617
g20
g8
(g21
g10
NtRp2618
(dp2619
g24
g147
sg26
I1
sg27
F0.10000000000000001
sg28
S'A'
sg29
S'C'
sg30
g31
sg32
g148
sg34
F12.0107
sg35
g149
sbsg37
g38
(g39
(I0
tS'b'
tRp2620
(I1
(I3
tg42
I00
S'+h\xc8\xa6\xb5\x85\xeb\xbf0l)\x93[\xfc\x1c@\x9e\xb6\xfc\xe8>\xd0\xd6?'
tbsg43
(lp2621
sbassI33
(dp2622
g15
(lp2623
g8
(g17
g10
NtRp2624
(dp2625
g20
g8
(g21
g10
NtRp2626
(dp2627
g24
g158
sg26
I1
sg27
F0.10000000000000001
sg28
S'A'
sg29
S'H'
sg30
g31
sg32
S'H'
sg34
F1.0079
sg35
g159
sbsg37
g38
(g39
(I0
tS'b'
tRp2628
(I1
(I3
tg42
I00
S'\x85\xe0\x9d\x0erj\xec\xbf\xf0\xed\xfc0w\xb0\x1c@\xb5\x9aI\t\x13p\xf7?'
tbsg43
(lp2629
sbassI34
(dp2630
g15
(lp2631
g8
(g17
g10
NtRp2632
(dp2633
g20
g8
(g21
g10
NtRp2634
(dp2635
g24
g168
sg26
I1
sg27
F-0.40000000000000002
sg28
S'A'
sg29
S'O'
sg30
g31
sg32
g169
sg34
F15.9994
sg35
g170
sbsg37
g38
(g39
(I0
tS'b'
tRp2636
(I1
(I3
tg42
I00
S'r\xa0E\xac\xa5\xdb\xdd\xbfP\xb4\xc5\xfd\xab\xf0\x17@\xed=\xa5\xb3I\x1b\xca\xbf'
tbsg43
(lp2637
sbassI35
(dp2638
g15
(lp2639
g8
(g17
g10
NtRp2640
(dp2641
g20
g8
(g21
g10
NtRp2642
(dp2643
g24
g179
sg26
I1
sg27
F0.050000000000000003
sg28
S'A'
sg29
S'C'
sg30
g31
sg32
g180
sg34
F12.0107
sg35
g181
sbsg37
g38
(g39
(I0
tS'b'
tRp2644
(I1
(I3
tg42
I00
S'\xa8\xbeU\x89\xf7\xd4\x01\xc00\xd8\xb5.\xd8\x95\x1d@u\xbf\xf3\x12])\xca\xbf'
tbsg43
(lp2645
sbassI36
(dp2646
g15
(lp2647
g8
(g17
g10
NtRp2648
(dp2649
g20
g8
(g21
g10
NtRp2650
(dp2651
g24
g190
sg26
I1
sg27
F-0.65000000000000002
sg28
S'A'
sg29
S'O'
sg30
g31
sg32
g191
sg34
F15.9994
sg35
g192
sbsg37
g38
(g39
(I0
tS'b'
tRp2652
(I1
(I3
tg42
I00
S'\xe7\tv\xd3\x9e\xce\x04\xc0\x90\xde\x1e\xbf\x01t\x18@\x1aUwj\xd4\x02\xe6\xbf'
tbsg43
(lp2653
sbassI37
(dp2654
g15
(lp2655
g8
(g17
g10
NtRp2656
(dp2657
g20
g8
(g21
g10
NtRp2658
(dp2659
g24
g201
sg26
I1
sg27
F0.10000000000000001
sg28
S'A'
sg29
S'H'
sg30
g31
sg32
S'H'
sg34
F1.0079
sg35
g202
sbsg37
g38
(g39
(I0
tS'b'
tRp2660
(I1
(I3
tg42
I00
S')\xd8\x06Gy\xde\xbf?\xd0\xac\t;5\x15\x15@w&b\x98\xa9\x05\xfb?'
tbsg43
(lp2661
sbassI38
(dp2662
g15
(lp2663
g8
(g17
g10
NtRp2664
(dp2665
g20
g8
(g21
g10
NtRp2666
(dp2667
g24
g211
sg26
I1
sg27
F0.40000000000000002
sg28
S'A'
sg29
S'H'
sg30
g31
sg32
g212
sg34
F1.0079
sg35
g213
sbsg37
g38
(g39
(I0
tS'b'
tRp2668
(I1
(I3
tg42
I00
S'5\xf3\xcf\x9e\xd5V\x01@\x10\xcc@3\xc1u\x13@<\x92\x8ei\x1du\xe1\xbf'
tbsg43
(lp2669
sbassI39
(dp2670
g15
(lp2671
g8
(g17
g10
NtRp2672
(dp2673
g20
g8
(g21
g10
NtRp2674
(dp2675
g24
g222
sg26
I1
sg27
F0.40000000000000002
sg28
S'A'
sg29
S'H'
sg30
g31
sg32
g223
sg34
F1.0079
sg35
g224
sbsg37
g38
(g39
(I0
tS'b'
tRp2676
(I1
(I3
tg42
I00
S'\xff\xaa\xc5B\x06e\x06@\xf0\x94\xe8}\xdd+\x1c@m\xde8\xaa!P\xf1\xbf'
tbsg43
(lp2677
sbassI40
(dp2678
g15
(lp2679
g8
(g17
g10
NtRp2680
(dp2681
g20
g8
(g21
g10
NtRp2682
(dp2683
g24
g233
sg26
I1
sg27
F0.10000000000000001
sg28
S'A'
sg29
S'H'
sg30
g31
sg32
S'H'
sg34
F1.0079
sg35
g234
sbsg37
g38
(g39
(I0
tS'b'
tRp2684
(I1
(I3
tg42
I00
S'Jy\xffK\xe8\xfc\x01\xc0*\xca\xc0a<> @;oa@/\xbf\xf0\xbf'
tbsg43
(lp2685
sbassI41
(dp2686
g15
(lp2687
g8
(g17
g10
NtRp2688
(dp2689
g20
g8
(g21
g10
NtRp2690
(dp2691
g24
g243
sg26
I1
sg27
F0.10000000000000001
sg28
S'A'
sg29
S'H'
sg30
g31
sg32
S'H'
sg34
F1.0079
sg35
g244
sbsg37
g38
(g39
(I0
tS'b'
tRp2692
(I1
(I3
tg42
I00
S'\xf2\xd57PM\x94\x07\xc0\x90E=\xf6\xaf\xe5\x1e@>vR\xe7B\x8a\xe2?'
tbsg43
(lp2693
sbassI42
(dp2694
g15
(lp2695
g8
(g17
g10
NtRp2696
(dp2697
g20
g8
(g21
g10
NtRp2698
(dp2699
g24
g253
sg26
I1
sg27
F0.40000000000000002
sg28
S'A'
sg29
S'H'
sg30
g31
sg32
g254
sg34
F1.0079
sg35
g255
sbsg37
g38
(g39
(I0
tS'b'
tRp2700
(I1
(I3
tg42
I00
S'(]\xde5C\x7f\xfc\xbfPM>\xaaW\xe3\x16@\x1bG"\x1bS\xf3\xef\xbf'
tbsg43
(lp2701
sbasssg435
(dp2702
sg437
I00
sg438
(lp2703
(lp2704
I1
aI0
aI0
aI0
aa(lp2705
I0
aI1
aI0
aI0
aa(lp2706
I0
aI0
aI1
aI0
aa(lp2707
I0
aI0
aI0
aI1
aasg444
(dp2708
sg32
S'Cellulose_b'
p2709
sg447
(dp2710
I1
(dp2711
I16
(dp2712
sI2
(dp2713
sI13
(dp2714
ssI2
(dp2715
I1
g2713
sI3
(dp2716
sI4
(dp2717
sI5
(dp2718
ssI3
(dp2719
I2
g2716
ssI4
(dp2720
I17
(dp2721
sI2
g2717
ssI5
(dp2722
I8
(dp2723
sI2
g2718
sI6
(dp2724
sI7
(dp2725
ssI6
(dp2726
I5
g2724
ssI7
(dp2727
I18
(dp2728
sI5
g2725
ssI8
(dp2729
I9
(dp2730
sI10
(dp2731
sI11
(dp2732
sI5
g2723
ssI9
(dp2733
I8
g2730
ssI10
(dp2734
I8
g2731
sI22
(dp2735
ssI11
(dp2736
I8
g2732
sI12
(dp2737
sI13
(dp2738
sI14
(dp2739
ssI12
(dp2740
I11
g2737
ssI13
(dp2741
I1
g2714
sI11
g2738
ssI14
(dp2742
I11
g2739
sI19
(dp2743
sI20
(dp2744
sI15
(dp2745
ssI15
(dp2746
I21
(dp2747
sI14
g2745
ssI16
(dp2748
I1
g2712
ssI17
(dp2749
I4
g2721
ssI18
(dp2750
I7
g2728
ssI19
(dp2751
I14
g2743
ssI20
(dp2752
I14
g2744
ssI21
(dp2753
I15
g2747
ssI22
(dp2754
I34
(dp2755
sI37
(dp2756
sI10
g2735
sI23
(dp2757
ssI23
(dp2758
I24
(dp2759
sI25
(dp2760
sI26
(dp2761
sI22
g2757
ssI24
(dp2762
I23
g2759
ssI25
(dp2763
I38
(dp2764
sI23
g2760
ssI26
(dp2765
I27
(dp2766
sI28
(dp2767
sI29
(dp2768
sI23
g2761
ssI27
(dp2769
I26
g2766
ssI28
(dp2770
I26
g2767
sI39
(dp2771
ssI29
(dp2772
I32
(dp2773
sI26
g2768
sI30
(dp2774
sI31
(dp2775
ssI30
(dp2776
I29
g2774
ssI31
(dp2777
I29
g2775
ssI32
(dp2778
I33
(dp2779
sI34
(dp2780
sI35
(dp2781
sI29
g2773
ssI33
(dp2782
I32
g2779
ssI34
(dp2783
I32
g2780
sI22
g2755
ssI35
(dp2784
I32
g2781
sI40
(dp2785
sI36
(dp2786
sI41
(dp2787
ssI36
(dp2788
I42
(dp2789
sI35
g2786
ssI37
(dp2790
I22
g2756
ssI38
(dp2791
I25
g2764
ssI39
(dp2792
I28
g2771
ssI40
(dp2793
I35
g2785
ssI41
(dp2794
I35
g2787
ssI42
(dp2795
I36
g2789
sssg536
g8
(g537
g10
NtRp2796
(dp2797
g540
(dp2798
sg542
(dp2799
sg544
(dp2800
sg546
g547
sg548
(dp2801
g552
(lp2802
F222.5
aF1.5
asg556
(lp2803
F309
aF1.111
asg559
(lp2804
F428
aF1.4199999999999999
asg562
(lp2805
F428
aF1.4199999999999999
asg566
(lp2806
F222.5
aF1.5
asg570
(lp2807
F309
aF1.111
asg574
(lp2808
F545
aF0.95999999999999996
asg577
(lp2809
F428
aF1.4199999999999999
asg579
(lp2810
F428
aF1.4199999999999999
asg582
(lp2811
F309
aF1.111
asg584
(lp2812
F222.5
aF1.5
asg587
(lp2813
F309
aF1.111
asg589
(lp2814
F222.5
aF1.5
asg591
(lp2815
F428
aF1.4199999999999999
asg594
(lp2816
F309
aF1.111
asg597
(lp2817
F545
aF0.95999999999999996
asg603
(lp2818
F545
aF0.95999999999999996
asg606
(lp2819
F309
aF1.111
asg608
(lp2820
F222.5
aF1.5
asg610
(lp2821
F428
aF1.4199999999999999
asg613
(lp2822
F309
aF1.111
asg615
(lp2823
F428
aF1.4199999999999999
assg617
(dp2824
g619
(lp2825
F78.195999999999998
aF108.89
asg621
(lp2826
F91.787999999999997
aF111
asg623
(lp2827
F119.044
aF106
asg625
(lp2828
F79.373999999999995
aF110.09999999999999
asg627
(lp2829
F78.195999999999998
aF108.89
asg629
(lp2830
F119.044
aF106
asg631
(lp2831
F113.39100000000001
aF110.09999999999999
asg633
(lp2832
F91.787999999999997
aF111
asg635
(lp2833
F79.373999999999995
aF110.09999999999999
asg637
(lp2834
F79.373999999999995
aF110.09999999999999
asg639
(lp2835
F113.39100000000001
aF110.09999999999999
asg641
(lp2836
F107.179
aF105
asg643
(lp2837
F107.179
aF105
asg645
(lp2838
F79.373999999999995
aF110.09999999999999
asg647
(lp2839
F79.373999999999995
aF110.09999999999999
asg649
(lp2840
F78.299000000000007
aF109
asg651
(lp2841
F107.179
aF105
asg653
(lp2842
F76.739999999999995
aF107.23999999999999
asg655
(lp2843
F214.084
aF111.55
asg657
(lp2844
F131.929
aF107.5
asg659
(lp2845
F131.929
aF107.5
asg661
(lp2846
F113.39100000000001
aF110.09999999999999
asg663
(lp2847
F79.373999999999995
aF110.09999999999999
asg665
(lp2848
F79.373999999999995
aF110.09999999999999
asg667
(lp2849
F79.373999999999995
aF110.09999999999999
asg669
(lp2850
F119.044
aF106
asg671
(lp2851
F91.787999999999997
aF111
asg673
(lp2852
F76.739999999999995
aF107.23999999999999
asg675
(lp2853
F113.39100000000001
aF110.09999999999999
asg677
(lp2854
F79.373999999999995
aF110.09999999999999
asg679
(lp2855
F107.179
aF105
asg681
(lp2856
F78.195999999999998
aF108.89
asg683
(lp2857
F76.739999999999995
aF107.23999999999999
asg685
(lp2858
F113.39100000000001
aF110.09999999999999
asg687
(lp2859
F91.787999999999997
aF111
asg689
(lp2860
F107.179
aF105
asg691
(lp2861
F107.179
aF105
asg693
(lp2862
F79.373999999999995
aF110.09999999999999
asg695
(lp2863
F76.739999999999995
aF107.23999999999999
asg697
(lp2864
F78.195999999999998
aF108.89
asg699
(lp2865
F79.373999999999995
aF110.09999999999999
assg701
(dp2866
g550
(lp2867
F-0.032000000000000001
aF2
aF0.14999999999999999
asg561
(lp2868
F-0.19209999999999999
aF1.7649999999999999
aF-0.5
asg573
(lp2869
F-0.19209999999999999
aF1.7649999999999999
aF-0.65000000000000002
asg558
(lp2870
F-0.19209999999999999
aF1.7649999999999999
aF-0.40000000000000002
asg569
(lp2871
F-0.044999999999999998
aF1.3400000000000001
aF0.10000000000000001
asg576
(lp2872
F-0.19209999999999999
aF1.7649999999999999
aF-0.65000000000000002
asg601
(lp2873
F-0.045999999999999999
aF0.22450000000000001
aF0.40000000000000002
asg572
(lp2874
F-0.045999999999999999
aF0.22450000000000001
aF0.40000000000000002
asg565
(lp2875
F-0.032000000000000001
aF2
aF0.14999999999999999
asg586
(lp2876
F-0.044999999999999998
aF1.3400000000000001
aF0.10000000000000001
asg593
(lp2877
F-0.044999999999999998
aF1.3400000000000001
aF0.10000000000000001
asg596
(lp2878
F-0.045999999999999999
aF0.22450000000000001
aF0.40000000000000002
asg568
(lp2879
F-0.032000000000000001
aF2
aF0.050000000000000003
asg602
(lp2880
F-0.19209999999999999
aF1.7649999999999999
aF-0.65000000000000002
asg612
(lp2881
F-0.044999999999999998
aF1.3400000000000001
aF0.10000000000000001
asg564
(lp2882
F-0.032000000000000001
aF2
aF0.14999999999999999
asg551
(lp2883
F-0.032000000000000001
aF2
aF0.10000000000000001
asg605
(lp2884
F-0.044999999999999998
aF1.3400000000000001
aF0.10000000000000001
asg554
(lp2885
F-0.032000000000000001
aF2
aF0.34999999999999998
asg555
(lp2886
F-0.044999999999999998
aF1.3400000000000001
aF0.10000000000000001
asg581
(lp2887
F-0.044999999999999998
aF1.3400000000000001
aF0.10000000000000001
assg725
g726
sg727
(dp2888
g729
(lp2889
F0.59999999999999998
aI1
aF180
asg731
(lp2890
F0.10000000000000001
aI3
aF180
asg733
(lp2891
F0.14999999999999999
aI3
aF180
asg735
(lp2892
F0.14999999999999999
aI3
aF180
asg737
(lp2893
F-1.8400000000000001
aI1
aF180
asg739
(lp2894
F0.14999999999999999
aI3
aF180
asg741
(lp2895
F-1.1499999999999999
aI1
aF180
asg743
(lp2896
F0.14999999999999999
aI3
aF180
asg745
(lp2897
F0.14999999999999999
aI3
aF180
asg747
(lp2898
F0.59999999999999998
aI1
aF180
asg749
(lp2899
F0.14999999999999999
aI3
aF180
asg751
(lp2900
F0.14999999999999999
aI3
aF180
asg753
(lp2901
F0.82999999999999996
aI1
aF180
asg755
(lp2902
F-1.6299999999999999
aI1
aF180
asg757
(lp2903
F0.14000000000000001
aI3
aF180
asg759
(lp2904
F0.14999999999999999
aI3
aF180
asg761
(lp2905
F0.14000000000000001
aI3
aF180
asg763
(lp2906
F0.14999999999999999
aI3
aF180
asg765
(lp2907
F0.14999999999999999
aI3
aF180
asg767
(lp2908
F0.14000000000000001
aI3
aF180
asg769
(lp2909
F0.14999999999999999
aI3
aF180
asg771
(lp2910
F0.14999999999999999
aI3
aF180
asg773
(lp2911
F-1.8400000000000001
aI1
aF180
asg775
(lp2912
F0.14999999999999999
aI3
aF180
asg777
(lp2913
F0.14000000000000001
aI3
aF180
asg779
(lp2914
F0.14999999999999999
aI3
aF180
asg781
(lp2915
F0.14999999999999999
aI3
aF180
asg783
(lp2916
F0.14999999999999999
aI3
aF180
asg785
(lp2917
F0.82999999999999996
aI1
aF180
asg787
(lp2918
F0.14000000000000001
aI3
aF180
asg789
(lp2919
F0.14999999999999999
aI3
aF180
asg791
(lp2920
F0.14000000000000001
aI3
aF180
asg793
(lp2921
F0.14999999999999999
aI3
aF180
asg795
(lp2922
F0.14000000000000001
aI3
aF180
asg797
(lp2923
F0.14000000000000001
aI3
aF180
asg799
(lp2924
F0.14999999999999999
aI3
aF180
as(g25
g136
g115
g83
tp2925
(lp2926
F0.59999999999999998
aF1
aF180
asg803
(lp2927
F0.14000000000000001
aI3
aF180
asg805
(lp2928
F0.14999999999999999
aI3
aF180
asg807
(lp2929
F0.14999999999999999
aI3
aF180
asg809
(lp2930
F-1.1499999999999999
aI1
aF180
asg811
(lp2931
F0.82999999999999996
aI1
aF180
asg813
(lp2932
F0.14999999999999999
aI3
aF180
asg815
(lp2933
F-1.8400000000000001
aI1
aF180
asg817
(lp2934
F0
aI0
aF0
asg819
(lp2935
F0.14999999999999999
aI3
aF180
asg821
(lp2936
F-1.8400000000000001
aI1
aF180
asg823
(lp2937
F0.14999999999999999
aI3
aF180
asg825
(lp2938
F0.14999999999999999
aI3
aF180
asg827
(lp2939
F0
aI0
aF0
asg829
(lp2940
F0.14999999999999999
aI3
aF180
asg831
(lp2941
F0.59999999999999998
aI1
aF180
asg833
(lp2942
F0.14999999999999999
aI3
aF180
asg835
(lp2943
F0.14999999999999999
aI3
aF180
asg837
(lp2944
F0.59999999999999998
aI1
aF180
asg839
(lp2945
F0.14999999999999999
aI3
aF180
asg841
(lp2946
F0.14999999999999999
aI3
aF180
asg843
(lp2947
F0.14999999999999999
aI3
aF180
asg845
(lp2948
F0.14999999999999999
aI3
aF180
asg847
(lp2949
F0.14999999999999999
aI3
aF180
asg849
(lp2950
F0.14000000000000001
aI3
aF180
asg851
(lp2951
F0.14999999999999999
aI3
aF180
asg853
(lp2952
F0.14999999999999999
aI3
aF180
assbsg855
g2710
sbassS'CelluloseB_b_1'
p2953
(dp2954
g6
(lp2955
g8
(g9
g10
NtRp2956
(dp2957
g2
(dp2958
I1
(dp2959
g863
(lp2960
g8
(g17
g10
NtRp2961
(dp2962
g20
g8
(g21
g10
NtRp2963
(dp2964
g24
g869
sg26
I1
sg27
F0.34999999999999998
sg28
S'A'
sg29
S'C'
sg30
g870
sg32
g871
sg34
F12.0107
sg35
g872
sbsg37
g38
(g39
(I0
tS'b'
tRp2965
(I1
(I3
tg874
I00
S'\xbb(\x905D\xe2\xcf?\xf6\xbc\xb2jvJ\xd7?\x80\x8bQ\x81\xa6\xafC?'
tbsg43
(lp2966
sbassI2
(dp2967
g863
(lp2968
g8
(g17
g10
NtRp2969
(dp2970
g20
g8
(g21
g10
NtRp2971
(dp2972
g24
g882
sg26
I1
sg27
F0.14999999999999999
sg28
S'A'
sg29
S'C'
sg30
g870
sg32
g883
sg34
F12.0107
sg35
g884
sbsg37
g38
(g39
(I0
tS'b'
tRp2973
(I1
(I3
tg874
I00
S'Q\xb9\t.\x12\x94\xee\xbf>9q\xdc\x0fS\xf4?\x7f\xc6f9\x95\xec\xb1?'
tbsg43
(lp2974
sbassI3
(dp2975
g863
(lp2976
g8
(g17
g10
NtRp2977
(dp2978
g20
g8
(g21
g10
NtRp2979
(dp2980
g24
g893
sg26
I1
sg27
F0.10000000000000001
sg28
S'A'
sg29
S'H'
sg30
g870
sg32
S'H'
sg34
F1.0079
sg35
g894
sbsg37
g38
(g39
(I0
tS'b'
tRp2981
(I1
(I3
tg874
I00
S"\xd0\x08!V\xd1\xf9\xf7\xbf~i\xbal\x08\x8f\xf3?'m\x1bH\xa4\xce\xec\xbf"
tbsg43
(lp2982
sbassI4
(dp2983
g863
(lp2984
g8
(g17
g10
NtRp2985
(dp2986
g20
g8
(g21
g10
NtRp2987
(dp2988
g24
g903
sg26
I1
sg27
F-0.65000000000000002
sg28
S'A'
sg29
S'O'
sg30
g870
sg32
g904
sg34
F15.9994
sg35
g905
sbsg37
g38
(g39
(I0
tS'b'
tRp2989
(I1
(I3
tg874
I00
S'\xba\x7f\xe9\xca\xd0K\xfc\xbf\xbb\x93{\xe8\x03d\xe6?\xf9A\xb9U\xa6&\xf1?'
tbsg43
(lp2990
sbassI8
(dp2991
g863
(lp2992
g8
(g17
g10
NtRp2993
(dp2994
g20
g8
(g21
g10
NtRp2995
(dp2996
g24
g914
sg26
I1
sg27
F0.14999999999999999
sg28
S'A'
sg29
S'C'
sg30
g870
sg32
g915
sg34
F12.0107
sg35
g916
sbsg37
g38
(g39
(I0
tS'b'
tRp2997
(I1
(I3
tg874
I00
S'\xd7\xda\xa8:\x98\xf2\xe2?gdC\x1ce\xd2\t@wW\xbb;\xf3\x8c\xe8?'
tbsg43
(lp2998
sbassI9
(dp2999
g863
(lp3000
g8
(g17
g10
NtRp3001
(dp3002
g20
g8
(g21
g10
NtRp3003
(dp3004
g24
g925
sg26
I1
sg27
F0.10000000000000001
sg28
S'A'
sg29
S'H'
sg30
g870
sg32
S'H'
sg34
F1.0079
sg35
g926
sbsg37
g38
(g39
(I0
tS'b'
tRp3005
(I1
(I3
tg874
I00
S'\xfb3\xd2\n\xbc\xa3\xe7?w\xb8\x87DS\xc3\x0b@\x8c!\xec\xcc\xf8r\xfd?'
tbsg43
(lp3006
sbassI10
(dp3007
g863
(lp3008
g8
(g17
g10
NtRp3009
(dp3010
g20
g8
(g21
g10
NtRp3011
(dp3012
g24
g935
sg26
I1
sg27
F-0.5
sg28
S'A'
sg29
S'O'
sg30
g870
sg32
g936
sg34
F15.9994
sg35
g937
sbsg37
g38
(g39
(I0
tS'b'
tRp3013
(I1
(I3
tg874
I00
S"M1\xa8g\nf\xe6?\x9fa\xbd+\x17\xc1\x11@\xc8#'}\x91N\xa3\xbf"
tbsg43
(lp3014
sbassI11
(dp3015
g863
(lp3016
g8
(g17
g10
NtRp3017
(dp3018
g20
g8
(g21
g10
NtRp3019
(dp3020
g24
g946
sg26
I1
sg27
F0.10000000000000001
sg28
S'A'
sg29
S'C'
sg30
g870
sg32
g947
sg34
F12.0107
sg35
g948
sbsg37
g38
(g39
(I0
tS'b'
tRp3021
(I1
(I3
tg874
I00
S'V\x9c f\xf6\xf5\xf9?wsc\xee=\x99\x01@5\x80i\xa4+\xdf\xd2?'
tbsg43
(lp3022
sbassI12
(dp3023
g863
(lp3024
g8
(g17
g10
NtRp3025
(dp3026
g20
g8
(g21
g10
NtRp3027
(dp3028
g24
g957
sg26
I1
sg27
F0.10000000000000001
sg28
S'A'
sg29
S'H'
sg30
g870
sg32
S'H'
sg34
F1.0079
sg35
g958
sbsg37
g38
(g39
(I0
tS'b'
tRp3029
(I1
(I3
tg874
I00
S'\x88X\x0b\x9aTh\xfa?\x07w\n*u\x01\x01@\x15\x1a\xe0\xcbp\x08\xea\xbf'
tbsg43
(lp3030
sbassI13
(dp3031
g863
(lp3032
g8
(g17
g10
NtRp3033
(dp3034
g20
g8
(g21
g10
NtRp3035
(dp3036
g24
g967
sg26
I1
sg27
F-0.40000000000000002
sg28
S'A'
sg29
S'O'
sg30
g870
sg32
g968
sg34
F15.9994
sg35
g969
sbsg37
g38
(g39
(I0
tS'b'
tRp3037
(I1
(I3
tg874
I00
S'U\xd0\xcd\xfd\x04\xaa\xf3?{\x0ep\x0e{\x07\xee?\xe1j\x9c\xb3\x87^\xeb?'
tbsg43
(lp3038
sbassI14
(dp3039
g863
(lp3040
g8
(g17
g10
NtRp3041
(dp3042
g20
g8
(g21
g10
NtRp3043
(dp3044
g24
g978
sg26
I1
sg27
F0.050000000000000003
sg28
S'A'
sg29
S'C'
sg30
g870
sg32
g979
sg34
F12.0107
sg35
g980
sbsg37
g38
(g39
(I0
tS'b'
tRp3045
(I1
(I3
tg874
I00
S'\xd5\xf2\xb3R\x85\xee\x07@wK|%7\xcc\x02@)\x0bp\x8b\x0cb\xeb?'
tbsg43
(lp3046
sbassI15
(dp3047
g863
(lp3048
g8
(g17
g10
NtRp3049
(dp3050
g20
g8
(g21
g10
NtRp3051
(dp3052
g24
g989
sg26
I1
sg27
F-0.65000000000000002
sg28
S'A'
sg29
S'O'
sg30
g870
sg32
g990
sg34
F15.9994
sg35
g991
sbsg37
g38
(g39
(I0
tS'b'
tRp3053
(I1
(I3
tg874
I00
S'\r>\xd4\x9c,\xe8\n@~\xb0\x9c\x8c\x14\x11\xf1?B8\x95\xd8Dm\xf5?'
tbsg43
(lp3054
sbassI16
(dp3055
g863
(lp3056
g8
(g17
g10
NtRp3057
(dp3058
g20
g8
(g21
g10
NtRp3059
(dp3060
g24
g1000
sg26
I1
sg27
F0.10000000000000001
sg28
S'A'
sg29
S'H'
sg30
g870
sg32
S'H'
sg34
F1.0079
sg35
g1001
sbsg37
g38
(g39
(I0
tS'b'
tRp3061
(I1
(I3
tg874
I00
S'q\xf5\x97\xfcgj\xe4?\xedL?\xe2\x13\xaf\xcc?\xd1\x98\x08\xf5\xce\x99\xf0\xbf'
tbsg43
(lp3062
sbassI17
(dp3063
g863
(lp3064
g8
(g17
g10
NtRp3065
(dp3066
g20
g8
(g21
g10
NtRp3067
(dp3068
g24
g1010
sg26
I1
sg27
F0.40000000000000002
sg28
S'A'
sg29
S'H'
sg30
g870
sg32
g1011
sg34
F1.0079
sg35
g1012
sbsg37
g38
(g39
(I0
tS'b'
tRp3069
(I1
(I3
tg874
I00
S'4~\xe3\xaa\x8fz\xf6\xbf\x13\xcb\xdc\x16m?\xc7\xbf\xc3\xd6 Xi&\xf3?'
tbsg43
(lp3070
sbassI19
(dp3071
g863
(lp3072
g8
(g17
g10
NtRp3073
(dp3074
g20
g8
(g21
g10
NtRp3075
(dp3076
g24
g1021
sg26
I1
sg27
F0.10000000000000001
sg28
S'A'
sg29
S'H'
sg30
g870
sg32
S'H'
sg34
F1.0079
sg35
g1022
sbsg37
g38
(g39
(I0
tS'b'
tRp3077
(I1
(I3
tg874
I00
S'm\xad]\x15v\x16\x08@\x97\xc3\x13Ox\x99\x08@\xe8\xfc\xba\xe3\t+\xfb?'
tbsg43
(lp3078
sbassI20
(dp3079
g863
(lp3080
g8
(g17
g10
NtRp3081
(dp3082
g20
g8
(g21
g10
NtRp3083
(dp3084
g24
g1031
sg26
I1
sg27
F0.10000000000000001
sg28
S'A'
sg29
S'H'
sg30
g870
sg32
S'H'
sg34
F1.0079
sg35
g1032
sbsg37
g38
(g39
(I0
tS'b'
tRp3085
(I1
(I3
tg874
I00
S"\x0c\n\x96\x19\xdb\xad\r@7&\x8b\xb4\xe6k\x05@\xa9'\x05\xfb\x92k\xb2?"
tbsg43
(lp3086
sbassI21
(dp3087
g863
(lp3088
g8
(g17
g10
NtRp3089
(dp3090
g20
g8
(g21
g10
NtRp3091
(dp3092
g24
g1041
sg26
I1
sg27
F0.40000000000000002
sg28
S'A'
sg29
S'H'
sg30
g870
sg32
g1042
sg34
F1.0079
sg35
g1043
sbsg37
g38
(g39
(I0
tS'b'
tRp3093
(I1
(I3
tg874
I00
S'\xc1bMd/Y\x04@\xbb\xd64r\xd8\x9c\xe5??\xb1\xea0\x84e\xfa?'
tbsg43
(lp3094
sbassI22
(dp3095
g863
(lp3096
g8
(g17
g10
NtRp3097
(dp3098
g20
g8
(g21
g10
NtRp3099
(dp3100
g24
g869
sg26
I1
sg27
F0.34999999999999998
sg28
S'A'
sg29
S'C'
sg30
g870
sg32
g871
sg34
F12.0107
sg35
g872
sbsg37
g38
(g39
(I0
tS'b'
tRp3101
(I1
(I3
tg874
I00
S'\xd18\x88\x00\x0f\xbd\xe5?\x977\x08\x0f\xb8\xb8\x16@;\x89!\x00\x85\xea\xeb?'
tbsg43
(lp3102
sbassI26
(dp3103
g863
(lp3104
g8
(g17
g10
NtRp3105
(dp3106
g20
g8
(g21
g10
NtRp3107
(dp3108
g24
g1060
sg26
I1
sg27
F0.14999999999999999
sg28
S'A'
sg29
S'C'
sg30
g870
sg32
g1061
sg34
F12.0107
sg35
g1062
sbsg37
g38
(g39
(I0
tS'b'
tRp3109
(I1
(I3
tg874
I00
S'2\xaf\x80\x8fX\xa6\xfb?\xfcw\x15+\x08\x12 @`7"(\xe1J\xd8?'
tbsg43
(lp3110
sbassI27
(dp3111
g863
(lp3112
g8
(g17
g10
NtRp3113
(dp3114
g20
g8
(g21
g10
NtRp3115
(dp3116
g24
g1071
sg26
I1
sg27
F0.10000000000000001
sg28
S'A'
sg29
S'H'
sg30
g870
sg32
S'H'
sg34
F1.0079
sg35
g1072
sbsg37
g38
(g39
(I0
tS'b'
tRp3117
(I1
(I3
tg874
I00
S'\xb7\x8f\x8c\x92x\x8d\x01@\xfc\xb0\xc3[V\\!@?\x15MP\xe7u\xf2?'
tbsg43
(lp3118
sbassI28
(dp3119
g863
(lp3120
g8
(g17
g10
NtRp3121
(dp3122
g20
g8
(g21
g10
NtRp3123
(dp3124
g24
g1081
sg26
I1
sg27
F-0.65000000000000002
sg28
S'A'
sg29
S'O'
sg30
g870
sg32
g1082
sg34
F15.9994
sg35
g1083
sbsg37
g38
(g39
(I0
tS'b'
tRp3125
(I1
(I3
tg874
I00
S'*\xadp:\x92\x01\x04@\xea\xf4&\x0f\xd4O @]\xc3\xe0\xd9\xf3c\xe9\xbf'
tbsg43
(lp3126
sbassI29
(dp3127
g863
(lp3128
g8
(g17
g10
NtRp3129
(dp3130
g20
g8
(g21
g10
NtRp3131
(dp3132
g24
g914
sg26
I1
sg27
F0.14999999999999999
sg28
S'A'
sg29
S'C'
sg30
g870
sg32
g915
sg34
F12.0107
sg35
g916
sbsg37
g38
(g39
(I0
tS'b'
tRp3133
(I1
(I3
tg874
I00
S't\xd0\x86\xa6\x0f\x86\xd5?\xfc^?\x9b\xa1\x16!@_14p\xed\x13\xbb?'
tbsg43
(lp3134
sbassI30
(dp3135
g863
(lp3136
g8
(g17
g10
NtRp3137
(dp3138
g20
g8
(g21
g10
NtRp3139
(dp3140
g24
g925
sg26
I1
sg27
F0.10000000000000001
sg28
S'A'
sg29
S'H'
sg30
g870
sg32
S'H'
sg34
F1.0079
sg35
g926
sbsg37
g38
(g39
(I0
tS'b'
tRp3141
(I1
(I3
tg874
I00
S'\xf3;h\x0c\x90G\xc8?\xfcsP%\xdd\x92!@\x93e\x16\xb0\x80\xf6\xee\xbf'
tbsg43
(lp3142
sbassI31
(dp3143
g863
(lp3144
g8
(g17
g10
NtRp3145
(dp3146
g20
g8
(g21
g10
NtRp3147
(dp3148
g24
g935
sg26
I1
sg27
F-0.5
sg28
S'A'
sg29
S'O'
sg30
g870
sg32
g936
sg34
F15.9994
sg35
g937
sbsg37
g38
(g39
(I0
tS'b'
tRp3149
(I1
(I3
tg874
I00
S'\xbfF\x10\x99V>\xcd?\xac6\r\xea\x93\x82#@\xffO\x94\x01Z$\xed?'
tbsg43
(lp3150
sbassI32
(dp3151
g863
(lp3152
g8
(g17
g10
NtRp3153
(dp3154
g20
g8
(g21
g10
NtRp3155
(dp3156
g24
g946
sg26
I1
sg27
F0.10000000000000001
sg28
S'A'
sg29
S'C'
sg30
g870
sg32
g947
sg34
F12.0107
sg35
g948
sbsg37
g38
(g39
(I0
tS'b'
tRp3157
(I1
(I3
tg874
I00
S'\xa9\xf5T\xbeL6\xe6\xbfw\xc5\x8e\x9f\xaf\x10\x1e@\x8d\x1d\x8d\x17\xdb\x7f\xe2?'
tbsg43
(lp3158
sbassI33
(dp3159
g863
(lp3160
g8
(g17
g10
NtRp3161
(dp3162
g20
g8
(g21
g10
NtRp3163
(dp3164
g24
g957
sg26
I1
sg27
F0.10000000000000001
sg28
S'A'
sg29
S'H'
sg30
g870
sg32
S'H'
sg34
F1.0079
sg35
g958
sbsg37
g38
(g39
(I0
tS'b'
tRp3165
(I1
(I3
tg874
I00
S'\x03n*&\t\x1b\xe7\xbf7Gb=\xcb\xc4\x1d@\xd4\xfb\xd0\xda\xf0\xfb\xfa?'
tbsg43
(lp3166
sbassI34
(dp3167
g863
(lp3168
g8
(g17
g10
NtRp3169
(dp3170
g20
g8
(g21
g10
NtRp3171
(dp3172
g24
g967
sg26
I1
sg27
F-0.40000000000000002
sg28
S'A'
sg29
S'O'
sg30
g870
sg32
g968
sg34
F15.9994
sg35
g969
sbsg37
g38
(g39
(I0
tS'b'
tRp3173
(I1
(I3
tg874
I00
S'n\xbb^\xdb\xd3<\xd3\xbf\x97\r+\n\x00\x05\x19@lX\xae\xc4&\x1d\x92?'
tbsg43
(lp3174
sbassI35
(dp3175
g863
(lp3176
g8
(g17
g10
NtRp3177
(dp3178
g20
g8
(g21
g10
NtRp3179
(dp3180
g24
g978
sg26
I1
sg27
F0.050000000000000003
sg28
S'A'
sg29
S'C'
sg30
g870
sg32
g979
sg34
F12.0107
sg35
g980
sbsg37
g38
(g39
(I0
tS'b'
tRp3181
(I1
(I3
tg874
I00
S'\x08\xe28O\x1d\x81\x00\xc0w1\x1b;,\xaa\x1e@,L:\xca\x8b\xac\x91?'
tbsg43
(lp3182
sbassI36
(dp3183
g863
(lp3184
g8
(g17
g10
NtRp3185
(dp3186
g20
g8
(g21
g10
NtRp3187
(dp3188
g24
g989
sg26
I1
sg27
F-0.65000000000000002
sg28
S'A'
sg29
S'O'
sg30
g870
sg32
g990
sg34
F15.9994
sg35
g991
sbsg37
g38
(g39
(I0
tS'b'
tRp3189
(I1
(I3
tg874
I00
S'G-Y\x99\xc4z\x03\xc0\xd77\x84\xcbU\x88\x19@\xb6%\xd1\x8e1\xd6\xdd\xbf'
tbsg43
(lp3190
sbassI37
(dp3191
g863
(lp3192
g8
(g17
g10
NtRp3193
(dp3194
g20
g8
(g21
g10
NtRp3195
(dp3196
g24
g1000
sg26
I1
sg27
F0.10000000000000001
sg28
S'A'
sg29
S'H'
sg30
g870
sg32
S'H'
sg34
F1.0079
sg35
g1001
sbsg37
g38
(g39
(I0
tS'b'
tRp3197
(I1
(I3
tg874
I00
S'\x0e\x9b\xa8"p\x96\xd2?\x17\x06oG\x89)\x16@\x96\x87\xe9i\x87\x91\xfe?'
tbsg43
(lp3198
sbassI39
(dp3199
g863
(lp3200
g8
(g17
g10
NtRp3201
(dp3202
g20
g8
(g21
g10
NtRp3203
(dp3204
g24
g1164
sg26
I1
sg27
F0.40000000000000002
sg28
S'A'
sg29
S'H'
sg30
g870
sg32
g1165
sg34
F1.0079
sg35
g1166
sbsg37
g38
(g39
(I0
tS'b'
tRp3205
(I1
(I3
tg874
I00
S'\x9f\x87\xe2|\xe0\xb8\x07@7\xeeM\x8a1@\x1d@\x9b\xfab\xb1\x87\x88\xeb\xbf'
tbsg43
(lp3206
sbassI40
(dp3207
g863
(lp3208
g8
(g17
g10
NtRp3209
(dp3210
g20
g8
(g21
g10
NtRp3211
(dp3212
g24
g1021
sg26
I1
sg27
F0.10000000000000001
sg28
S'A'
sg29
S'H'
sg30
g870
sg32
S'H'
sg34
F1.0079
sg35
g1022
sbsg37
g38
(g39
(I0
tS'b'
tRp3213
(I1
(I3
tg874
I00
S'\xaa\x9c\xe2\x11\x0e\xa9\x00\xc0\xccv\xf3gf\xc8 @7\x1c\xb4\xdd\xa2f\xea\xbf'
tbsg43
(lp3214
sbassI41
(dp3215
g863
(lp3216
g8
(g17
g10
NtRp3217
(dp3218
g20
g8
(g21
g10
NtRp3219
(dp3220
g24
g1031
sg26
I1
sg27
F0.10000000000000001
sg28
S'A'
sg29
S'H'
sg30
g870
sg32
S'H'
sg34
F1.0079
sg35
g1032
sbsg37
g38
(g39
(I0
tS'b'
tRp3221
(I1
(I3
tg874
I00
S'R\xf9\x1a\x16s@\x06\xc0\xd7\x9e\xa2\x02\x04\xfa\x1f@}8a\x8a\xfe\xa1\xe9?'
tbsg43
(lp3222
sbassI42
(dp3223
g863
(lp3224
g8
(g17
g10
NtRp3225
(dp3226
g20
g8
(g21
g10
NtRp3227
(dp3228
g24
g1041
sg26
I1
sg27
F0.40000000000000002
sg28
S'A'
sg29
S'H'
sg30
g870
sg32
g1042
sg34
F1.0079
sg35
g1043
sbsg37
g38
(g39
(I0
tS'b'
tRp3229
(I1
(I3
tg874
I00
S'\xe6\xa3\xa4\xc1\x8e\xd7\xf9\xbf\x97\xa6\xa3\xb6\xab\xf7\x17@\xdb\x84\x13x\x97\xdb\xe8\xbf'
tbsg43
(lp3230
sbassI47
(dp3231
g863
(lp3232
g8
(g17
g10
NtRp3233
(dp3234
g20
g8
(g21
g10
NtRp3235
(dp3236
g24
g1060
sg26
I1
sg27
F0.14999999999999999
sg28
S'A'
sg29
S'C'
sg30
g870
sg32
g1061
sg34
F12.0107
sg35
g1062
sbsg37
g38
(g39
(I0
tS'b'
tRp3237
(I1
(I3
tg1200
I00
S"[\xb54'\x9f\xe1\xed\xbf\xdf$\xe1\xb9\\\x1d\x07@\x85\xd7\x8a+\x915\xed?"
tbsg43
(lp3238
sbassI48
(dp3239
g863
(lp3240
g8
(g17
g10
NtRp3241
(dp3242
g20
g8
(g21
g10
NtRp3243
(dp3244
g24
g1071
sg26
I1
sg27
F0.10000000000000001
sg28
S'A'
sg29
S'H'
sg30
g870
sg32
S'H'
sg34
F1.0079
sg35
g1072
sbsg37
g38
(g39
(I0
tS'b'
tRp3245
(I1
(I3
tg1200
I00
S'U~\xbe\xa1\xdc\xa3\xfb\xbf\xef\x9e\x96\xc7!\xa7\x06@D\xf3\t\x9c\xf7\xfd\xfa?'
tbsg43
(lp3246
sbassI49
(dp3247
g863
(lp3248
g8
(g17
g10
NtRp3249
(dp3250
g20
g8
(g21
g10
NtRp3251
(dp3252
g24
g1081
sg26
I1
sg27
F-0.65000000000000002
sg28
S'A'
sg29
S'O'
sg30
g870
sg32
g1082
sg34
F15.9994
sg35
g1083
sbsg37
g38
(g39
(I0
tS'b'
tRp3253
(I1
(I3
tg1200
I00
S'\xed\x93\xd4;\xd0]\xf8\xbf\x17\xc8\xde_\xa9:\x0b@\xc4\x0e\xce\x84\xa6\xa7\xd0\xbf'
tbsg43
(lp3254
sbassI60
(dp3255
g863
(lp3256
g8
(g17
g10
NtRp3257
(dp3258
g20
g8
(g21
g10
NtRp3259
(dp3260
g24
g1164
sg26
I1
sg27
F0.40000000000000002
sg28
S'A'
sg29
S'H'
sg30
g870
sg32
g1165
sg34
F1.0079
sg35
g1166
sbsg37
g38
(g39
(I0
tS'b'
tRp3261
(I1
(I3
tg1200
I00
S']I\xdc\xd4\xfb\xce\xf2\xbf\x8f\x8a\xd1\xb8\xb94\x11@\xfe|\xd23\xce\xf0\xd4\xbf'
tbsg43
(lp3262
sbassI83
(dp3263
g863
(lp3264
g8
(g17
g10
NtRp3265
(dp3266
g20
g8
(g21
g10
NtRp3267
(dp3268
g24
g882
sg26
I1
sg27
F0.14999999999999999
sg28
S'A'
sg29
S'C'
sg30
g870
sg32
g883
sg34
F12.0107
sg35
g884
sbsg37
g38
(g39
(I0
tS'b'
tRp3269
(I1
(I3
tg1200
I00
S'3\xde\xbe\xb2\xb8!\x00@\x17\xb7Q\x12\x19\x19\x1a@\xd8\xa2\x8f \xbb\xe8\xc7?'
tbsg43
(lp3270
sbassI84
(dp3271
g863
(lp3272
g8
(g17
g10
NtRp3273
(dp3274
g20
g8
(g21
g10
NtRp3275
(dp3276
g24
g893
sg26
I1
sg27
F0.10000000000000001
sg28
S'A'
sg29
S'H'
sg30
g870
sg32
S'H'
sg34
F1.0079
sg35
g894
sbsg37
g38
(g39
(I0
tS'b'
tRp3277
(I1
(I3
tg1200
I00
S'S\xf3I\xfc\x9e\xcb\x02@\xd7\x82K>\xa2\xff\x16@\xde\x0b6\x0b\x8aA\xe1\xbf'
tbsg43
(lp3278
sbassI85
(dp3279
g863
(lp3280
g8
(g17
g10
NtRp3281
(dp3282
g20
g8
(g21
g10
NtRp3283
(dp3284
g24
g903
sg26
I1
sg27
F-0.65000000000000002
sg28
S'A'
sg29
S'O'
sg30
g870
sg32
g904
sg34
F15.9994
sg35
g905
sbsg37
g38
(g39
(I0
tS'b'
tRp3285
(I1
(I3
tg1200
I00
S'\x0b\xc5K0\xd5\x92\x05@/\xbd\x13v\x99K\x19@\xf2\xb6\xdc4P\x80\xf6?'
tbsg43
(lp3286
sbassI98
(dp3287
g863
(lp3288
g8
(g17
g10
NtRp3289
(dp3290
g20
g8
(g21
g10
NtRp3291
(dp3292
g24
g1010
sg26
I1
sg27
F0.40000000000000002
sg28
S'A'
sg29
S'H'
sg30
g870
sg32
g1011
sg34
F1.0079
sg35
g1012
sbsg37
g38
(g39
(I0
tS'b'
tRp3293
(I1
(I3
tg1200
I00
S'C\x82&g\xb2%\x0b@S\xb5<\xc9%\xf2\x1b@:\x8c\xa4g\xdbc\xf6?'
tbsg43
(lp3294
sbasssg435
(dp3295
sg437
I00
sg438
(lp3296
(lp3297
I1
aI0
aI0
aI0
aa(lp3298
I0
aI1
aI0
aI0
aa(lp3299
I0
aI0
aI1
aI0
aa(lp3300
I0
aI0
aI0
aI1
aasg444
(dp3301
sg32
S'CelluloseB_b'
p3302
sg447
(dp3303
I1
(dp3304
I16
(dp3305
sI2
(dp3306
sI13
(dp3307
ssI2
(dp3308
I1
g3306
sI3
(dp3309
sI4
(dp3310
sI47
(dp3311
ssI3
(dp3312
I2
g3309
ssI4
(dp3313
I17
(dp3314
sI2
g3310
ssI8
(dp3315
I9
(dp3316
sI10
(dp3317
sI11
(dp3318
sI47
(dp3319
ssI9
(dp3320
I8
g3316
ssI10
(dp3321
I8
g3317
sI22
(dp3322
ssI11
(dp3323
I8
g3318
sI12
(dp3324
sI13
(dp3325
sI14
(dp3326
ssI12
(dp3327
I11
g3324
ssI13
(dp3328
I1
g3307
sI11
g3325
ssI14
(dp3329
I19
(dp3330
sI11
g3326
sI20
(dp3331
sI15
(dp3332
ssI15
(dp3333
I21
(dp3334
sI14
g3332
ssI16
(dp3335
I1
g3305
ssI17
(dp3336
I4
g3314
ssI19
(dp3337
I14
g3330
ssI20
(dp3338
I14
g3331
ssI21
(dp3339
I15
g3334
ssI22
(dp3340
I10
g3322
sI83
(dp3341
sI34
(dp3342
sI37
(dp3343
ssI26
(dp3344
I27
(dp3345
sI83
(dp3346
sI28
(dp3347
sI29
(dp3348
ssI27
(dp3349
I26
g3345
ssI28
(dp3350
I26
g3347
sI39
(dp3351
ssI29
(dp3352
I32
(dp3353
sI26
g3348
sI30
(dp3354
sI31
(dp3355
ssI30
(dp3356
I29
g3354
ssI31
(dp3357
I29
g3355
ssI32
(dp3358
I33
(dp3359
sI34
(dp3360
sI35
(dp3361
sI29
g3353
ssI33
(dp3362
I32
g3359
ssI34
(dp3363
I32
g3360
sI22
g3342
ssI35
(dp3364
I32
g3361
sI40
(dp3365
sI36
(dp3366
sI41
(dp3367
ssI36
(dp3368
I42
(dp3369
sI35
g3366
ssI37
(dp3370
I22
g3343
ssI39
(dp3371
I28
g3351
ssI40
(dp3372
I35
g3365
ssI41
(dp3373
I35
g3367
ssI42
(dp3374
I36
g3369
ssI47
(dp3375
I8
g3319
sI48
(dp3376
sI2
g3311
sI49
(dp3377
ssI48
(dp3378
I47
g3376
ssI49
(dp3379
I60
(dp3380
sI47
g3377
ssI60
(dp3381
I49
g3380
ssI83
(dp3382
I26
g3346
sI84
(dp3383
sI85
(dp3384
sI22
g3341
ssI84
(dp3385
I83
g3383
ssI85
(dp3386
I98
(dp3387
sI83
g3384
ssI98
(dp3388
I85
g3387
sssg536
g8
(g537
g10
NtRp3389
(dp3390
g540
(dp3391
sg542
(dp3392
sg544
(dp3393
sg546
g1378
sg548
(dp3394
g1382
(lp3395
F222.5
aF1.5
asg1386
(lp3396
F309
aF1.111
asg1389
(lp3397
F428
aF1.4199999999999999
asg1392
(lp3398
F428
aF1.4199999999999999
asg1396
(lp3399
F222.5
aF1.5
asg1400
(lp3400
F309
aF1.111
asg1404
(lp3401
F545
aF0.95999999999999996
asg1407
(lp3402
F428
aF1.4199999999999999
asg1409
(lp3403
F428
aF1.4199999999999999
asg1442
(lp3404
F309
aF1.111
asg1413
(lp3405
F222.5
aF1.5
asg1416
(lp3406
F309
aF1.111
asg1418
(lp3407
F222.5
aF1.5
asg1420
(lp3408
F428
aF1.4199999999999999
asg1423
(lp3409
F309
aF1.111
asg1428
(lp3410
F545
aF0.95999999999999996
asg1434
(lp3411
F545
aF0.95999999999999996
asg1437
(lp3412
F309
aF1.111
asg1439
(lp3413
F222.5
aF1.5
asg1411
(lp3414
F428
aF1.4199999999999999
asg1445
(lp3415
F309
aF1.111
asg1431
(lp3416
F428
aF1.4199999999999999
assg617
(dp3417
g1450
(lp3418
F78.195999999999998
aF108.89
asg1452
(lp3419
F91.787999999999997
aF111
asg1454
(lp3420
F119.044
aF106
asg1456
(lp3421
F79.373999999999995
aF110.09999999999999
asg1458
(lp3422
F78.195999999999998
aF108.89
asg1460
(lp3423
F78.195999999999998
aF108.89
asg1462
(lp3424
F119.044
aF106
asg1464
(lp3425
F113.39100000000001
aF110.09999999999999
asg1466
(lp3426
F91.787999999999997
aF111
asg1468
(lp3427
F79.373999999999995
aF110.09999999999999
asg1470
(lp3428
F113.39100000000001
aF110.09999999999999
asg1472
(lp3429
F107.179
aF105
asg1474
(lp3430
F107.179
aF105
asg1476
(lp3431
F79.373999999999995
aF110.09999999999999
asg1478
(lp3432
F79.373999999999995
aF110.09999999999999
asg1480
(lp3433
F91.787999999999997
aF111
asg1482
(lp3434
F78.299000000000007
aF109
asg1484
(lp3435
F107.179
aF105
asg1486
(lp3436
F76.739999999999995
aF107.23999999999999
asg1488
(lp3437
F214.084
aF111.55
asg1490
(lp3438
F131.929
aF107.5
asg1492
(lp3439
F131.929
aF107.5
asg1494
(lp3440
F113.39100000000001
aF110.09999999999999
asg1496
(lp3441
F79.373999999999995
aF110.09999999999999
asg1498
(lp3442
F79.373999999999995
aF110.09999999999999
asg1500
(lp3443
F76.739999999999995
aF107.23999999999999
asg1502
(lp3444
F119.044
aF106
asg1504
(lp3445
F79.373999999999995
aF110.09999999999999
asg1506
(lp3446
F76.739999999999995
aF107.23999999999999
asg1508
(lp3447
F113.39100000000001
aF110.09999999999999
asg1510
(lp3448
F79.373999999999995
aF110.09999999999999
asg1512
(lp3449
F107.179
aF105
asg1514
(lp3450
F78.195999999999998
aF108.89
asg1516
(lp3451
F76.739999999999995
aF107.23999999999999
asg1518
(lp3452
F113.39100000000001
aF110.09999999999999
asg1520
(lp3453
F91.787999999999997
aF111
asg1522
(lp3454
F107.179
aF105
asg1524
(lp3455
F107.179
aF105
asg1526
(lp3456
F79.373999999999995
aF110.09999999999999
asg1528
(lp3457
F79.373999999999995
aF110.09999999999999
asg1530
(lp3458
F79.373999999999995
aF110.09999999999999
assg701
(dp3459
g1380
(lp3460
F-0.032000000000000001
aF2
aF0.14999999999999999
asg1391
(lp3461
F-0.19209999999999999
aF1.7649999999999999
aF-0.5
asg1398
(lp3462
F-0.032000000000000001
aF2
aF0.050000000000000003
asg1384
(lp3463
F-0.032000000000000001
aF2
aF0.34999999999999998
asg1399
(lp3464
F-0.044999999999999998
aF1.3400000000000001
aF0.10000000000000001
asg1430
(lp3465
F-0.19209999999999999
aF1.7649999999999999
aF-0.65000000000000002
asg1433
(lp3466
F-0.045999999999999999
aF0.22450000000000001
aF0.40000000000000002
asg1395
(lp3467
F-0.032000000000000001
aF2
aF0.14999999999999999
asg1415
(lp3468
F-0.044999999999999998
aF1.3400000000000001
aF0.10000000000000001
asg1422
(lp3469
F-0.044999999999999998
aF1.3400000000000001
aF0.10000000000000001
asg1381
(lp3470
F-0.032000000000000001
aF2
aF0.10000000000000001
asg1427
(lp3471
F-0.045999999999999999
aF0.22450000000000001
aF0.40000000000000002
asg1406
(lp3472
F-0.19209999999999999
aF1.7649999999999999
aF-0.65000000000000002
asg1436
(lp3473
F-0.044999999999999998
aF1.3400000000000001
aF0.10000000000000001
asg1385
(lp3474
F-0.044999999999999998
aF1.3400000000000001
aF0.10000000000000001
asg1394
(lp3475
F-0.032000000000000001
aF2
aF0.14999999999999999
asg1444
(lp3476
F-0.044999999999999998
aF1.3400000000000001
aF0.10000000000000001
asg1402
(lp3477
F-0.045999999999999999
aF0.22450000000000001
aF0.40000000000000002
asg1388
(lp3478
F-0.19209999999999999
aF1.7649999999999999
aF-0.40000000000000002
asg1403
(lp3479
F-0.19209999999999999
aF1.7649999999999999
aF-0.65000000000000002
asg1441
(lp3480
F-0.044999999999999998
aF1.3400000000000001
aF0.10000000000000001
assg725
g1555
sg727
(dp3481
g1557
(lp3482
F0.14999999999999999
aI3
aF180
asg1559
(lp3483
F0.10000000000000001
aI3
aF180
asg1561
(lp3484
F0.14999999999999999
aI3
aF180
asg1563
(lp3485
F0.14999999999999999
aI3
aF180
asg1565
(lp3486
F0.14999999999999999
aI3
aF180
asg1567
(lp3487
F-1.8400000000000001
aI1
aF180
asg1569
(lp3488
F0.14999999999999999
aI3
aF180
asg1571
(lp3489
F0.14999999999999999
aI3
aF180
asg1573
(lp3490
F-1.1499999999999999
aI1
aF180
asg1575
(lp3491
F0.14999999999999999
aI3
aF180
asg1577
(lp3492
F0.14999999999999999
aI3
aF180
asg1579
(lp3493
F0.59999999999999998
aI1
aF180
asg1581
(lp3494
F0.14000000000000001
aI3
aF180
asg1583
(lp3495
F0.14999999999999999
aI3
aF180
asg1585
(lp3496
F0.14999999999999999
aI3
aF180
asg1587
(lp3497
F0.82999999999999996
aI1
aF180
asg1589
(lp3498
F-1.6299999999999999
aI1
aF180
asg1591
(lp3499
F0.14000000000000001
aI3
aF180
asg1593
(lp3500
F0.14000000000000001
aI3
aF180
asg1595
(lp3501
F0.14999999999999999
aI3
aF180
asg1597
(lp3502
F0.14999999999999999
aI3
aF180
asg1599
(lp3503
F0.14000000000000001
aI3
aF180
asg1601
(lp3504
F0.14999999999999999
aI3
aF180
asg1603
(lp3505
F0.14999999999999999
aI3
aF180
asg1605
(lp3506
F-1.8400000000000001
aI1
aF180
asg1607
(lp3507
F0.14999999999999999
aI3
aF180
asg1609
(lp3508
F0.14000000000000001
aI3
aF180
asg1611
(lp3509
F0.14999999999999999
aI3
aF180
asg1613
(lp3510
F0.14999999999999999
aI3
aF180
asg1615
(lp3511
F0.82999999999999996
aI1
aF180
asg1617
(lp3512
F-1.8400000000000001
aI1
aF180
asg1619
(lp3513
F0.14999999999999999
aI3
aF180
asg1621
(lp3514
F0.14000000000000001
aI3
aF180
asg1623
(lp3515
F0.14999999999999999
aI3
aF180
asg1625
(lp3516
F0.14000000000000001
aI3
aF180
asg1627
(lp3517
F0.14999999999999999
aI3
aF180
asg1629
(lp3518
F0.14999999999999999
aI3
aF180
asg1631
(lp3519
F0.59999999999999998
aF1
aF180
asg1633
(lp3520
F0.14000000000000001
aI3
aF180
asg1635
(lp3521
F0.14999999999999999
aI3
aF180
asg1637
(lp3522
F0.14999999999999999
aI3
aF180
asg1639
(lp3523
F-1.1499999999999999
aI1
aF180
asg1641
(lp3524
F0.82999999999999996
aI1
aF180
asg1643
(lp3525
F0.14999999999999999
aI3
aF180
asg1645
(lp3526
F-1.8400000000000001
aI1
aF180
asg1647
(lp3527
F0
aI0
aF0
asg1649
(lp3528
F0.14999999999999999
aI3
aF180
asg1651
(lp3529
F0.14000000000000001
aI3
aF180
asg1653
(lp3530
F0.14999999999999999
aI3
aF180
asg1655
(lp3531
F0.14999999999999999
aI3
aF180
asg1657
(lp3532
F0
aI0
aF0
asg1659
(lp3533
F0.14999999999999999
aI3
aF180
asg1661
(lp3534
F0.59999999999999998
aI1
aF180
asg1663
(lp3535
F0.14999999999999999
aI3
aF180
asg1665
(lp3536
F0.59999999999999998
aI1
aF180
asg1667
(lp3537
F0.59999999999999998
aI1
aF180
asg1669
(lp3538
F0.14999999999999999
aI3
aF180
asg1671
(lp3539
F0.14999999999999999
aI3
aF180
asg1673
(lp3540
F0.14999999999999999
aI3
aF180
asg1675
(lp3541
F0.14999999999999999
aI3
aF180
asg1677
(lp3542
F0.14000000000000001
aI3
aF180
asg1679
(lp3543
F0.14999999999999999
aI3
aF180
asg1681
(lp3544
F0.14999999999999999
aI3
aF180
assbsg855
g3303
sbassS'Cellulose_s_1'
p3545
(dp3546
g6
(lp3547
g8
(g9
g10
NtRp3548
(dp3549
g2
(dp3550
I1
(dp3551
g15
(lp3552
g8
(g17
g10
NtRp3553
(dp3554
g20
g8
(g21
g10
NtRp3555
(dp3556
g24
g25
sg26
I1
sg27
F0.34999999999999998
sg28
S'A'
sg29
S'C'
sg30
g31
sg32
g33
sg34
F12.0107
sg35
g36
sbsg37
g38
(g39
(I0
tS'b'
tRp3557
(I1
(I3
tg42
I00
S'\x91+%\xbc\xfe\xa9\xc7?@\xdf\xef8\xddh\xc2?\x90\xfc\xb1\x80\xd9\xc5\xca\xbf'
tbsg43
(lp3558
sbassI2
(dp3559
g15
(lp3560
g8
(g17
g10
NtRp3561
(dp3562
g20
g8
(g21
g10
NtRp3563
(dp3564
g24
g51
sg26
I1
sg27
F0.14999999999999999
sg28
S'A'
sg29
S'C'
sg30
g31
sg32
g52
sg34
F12.0107
sg35
g53
sbsg37
g38
(g39
(I0
tS'b'
tRp3565
(I1
(I3
tg42
I00
S'H<2\xc6\x11Q\xf0\xbf\xe0\x85\xe2\xe8\x8d\xcd\xf0?\xfc\xea\x7f\x8a>\xe3\xc1\xbf'
tbsg43
(lp3566
sbassI3
(dp3567
g15
(lp3568
g8
(g17
g10
NtRp3569
(dp3570
g20
g8
(g21
g10
NtRp3571
(dp3572
g24
g62
sg26
I1
sg27
F0.10000000000000001
sg28
S'A'
sg29
S'H'
sg30
g31
sg32
S'H'
sg34
F1.0079
sg35
g63
sbsg37
g38
(g39
(I0
tS'b'
tRp3573
(I1
(I3
tg42
I00
S'phN\x05\xda\x00\xf9\xbf \xb6+y\x86\t\xf0?V \xf4H\x83\xc2\xf1\xbf'
tbsg43
(lp3574
sbassI4
(dp3575
g15
(lp3576
g8
(g17
g10
NtRp3577
(dp3578
g20
g8
(g21
g10
NtRp3579
(dp3580
g24
g72
sg26
I1
sg27
F-0.65000000000000002
sg28
S'A'
sg29
S'O'
sg30
g31
sg32
g73
sg34
F15.9994
sg35
g74
sbsg37
g38
(g39
(I0
tS'b'
tRp3581
(I1
(I3
tg42
I00
S'a\xdf\x16z\xd9R\xfd\xbf Z\xbc\x02\x00\xb2\xde?f\xb0\xa5a\xea\x96\xeb?'
tbsg43
(lp3582
sbassI5
(dp3583
g15
(lp3584
g8
(g17
g10
NtRp3585
(dp3586
g20
g8
(g21
g10
NtRp3587
(dp3588
g24
g83
sg26
I1
sg27
F0.14999999999999999
sg28
S'A'
sg29
S'C'
sg30
g31
sg32
g84
sg34
F12.0107
sg35
g85
sbsg37
g38
(g39
(I0
tS'b'
tRp3589
(I1
(I3
tg42
I00
S'\xdd\xdaoo"\xa5\xeb\xbf\xd0n\xd4a>\xfd\x03@\x16\xdd\xc7\x17<\'\xd2?'
tbsg43
(lp3590
sbassI6
(dp3591
g15
(lp3592
g8
(g17
g10
NtRp3593
(dp3594
g20
g8
(g21
g10
NtRp3595
(dp3596
g24
g94
sg26
I1
sg27
F0.10000000000000001
sg28
S'A'
sg29
S'H'
sg30
g31
sg32
S'H'
sg34
F1.0079
sg35
g95
sbsg37
g38
(g39
(I0
tS'b'
tRp3597
(I1
(I3
tg42
I00
S'\x8a]P\xcd)G\xf5\xbf\xd0R\x8d$w&\t@\xe7@J\x01\x80e\xdf\xbf'
tbsg43
(lp3598
sbassI7
(dp3599
g15
(lp3600
g8
(g17
g10
NtRp3601
(dp3602
g20
g8
(g21
g10
NtRp3603
(dp3604
g24
g104
sg26
I1
sg27
F-0.65000000000000002
sg28
S'A'
sg29
S'O'
sg30
g31
sg32
g105
sg34
F15.9994
sg35
g106
sbsg37
g38
(g39
(I0
tS'b'
tRp3605
(I1
(I3
tg42
I00
S'\x8f\x98\x18\x1d]/\xfa\xbfpb\x1a\xf2m\xf4\x04@\xc5\xe6\xea<\x81N\xf7?'
tbsg43
(lp3606
sbassI8
(dp3607
g15
(lp3608
g8
(g17
g10
NtRp3609
(dp3610
g20
g8
(g21
g10
NtRp3611
(dp3612
g24
g115
sg26
I1
sg27
F0.14999999999999999
sg28
S'A'
sg29
S'C'
sg30
g31
sg32
g116
sg34
F12.0107
sg35
g117
sbsg37
g38
(g39
(I0
tS'b'
tRp3613
(I1
(I3
tg42
I00
S'\x8a\x1bN\xdc\x86\xe4\xe0?\xc0\n|"\xa4\x0f\x08@\xe6\x83\xee\xf1\x90\xd6\xe1?'
tbsg43
(lp3614
sbassI9
(dp3615
g15
(lp3616
g8
(g17
g10
NtRp3617
(dp3618
g20
g8
(g21
g10
NtRp3619
(dp3620
g24
g126
sg26
I1
sg27
F0.10000000000000001
sg28
S'A'
sg29
S'H'
sg30
g31
sg32
S'H'
sg34
F1.0079
sg35
g127
sbsg37
g38
(g39
(I0
tS'b'
tRp3621
(I1
(I3
tg42
I00
S'\xadtw\xac\xaa\x95\xe5?\xd0^\xc0J\x92\x00\n@\xc5\xb7\x05\xa8\xc7\x17\xfa?'
tbsg43
(lp3622
sbassI10
(dp3623
g15
(lp3624
g8
(g17
g10
NtRp3625
(dp3626
g20
g8
(g21
g10
NtRp3627
(dp3628
g24
g136
sg26
I1
sg27
F-0.55000000000000004
sg28
S'A'
sg29
S'O'
sg30
g31
sg32
g137
sg34
F15.9994
sg35
g138
sbsg37
g38
(g39
(I0
tS'b'
tRp3629
(I1
(I3
tg42
I00
S'\xfdqM\t\xf9W\xe4?\xd0\xb4\xd9\xae\xb6\xdf\x10@\x08\x17}\x86-\xad\xcf\xbf'
tbsg43
(lp3630
sbassI11
(dp3631
g15
(lp3632
g8
(g17
g10
NtRp3633
(dp3634
g20
g8
(g21
g10
NtRp3635
(dp3636
g24
g147
sg26
I1
sg27
F0.10000000000000001
sg28
S'A'
sg29
S'C'
sg30
g31
sg32
g148
sg34
F12.0107
sg35
g149
sbsg37
g38
(g39
(I0
tS'b'
tRp3637
(I1
(I3
tg42
I00
S'\xa9<\xf3\xb6\xed\xee\xf8?\xa038\xe9\xf9\xac\xff?\xbfd?C\x9c\xc9\xb5?'
tbsg43
(lp3638
sbassI12
(dp3639
g15
(lp3640
g8
(g17
g10
NtRp3641
(dp3642
g20
g8
(g21
g10
NtRp3643
(dp3644
g24
g158
sg26
I1
sg27
F0.10000000000000001
sg28
S'A'
sg29
S'H'
sg30
g31
sg32
S'H'
sg34
F1.0079
sg35
g159
sbsg37
g38
(g39
(I0
tS'b'
tRp3645
(I1
(I3
tg42
I00
S'\xe2\xf8\xdd\xeaKa\xf9?\xc0:\x86`h}\xfe?\xcav\xd6\x8ai_\xf0\xbf'
tbsg43
(lp3646
sbassI13
(dp3647
g15
(lp3648
g8
(g17
g10
NtRp3649
(dp3650
g20
g8
(g21
g10
NtRp3651
(dp3652
g24
g168
sg26
I1
sg27
F-0.40000000000000002
sg28
S'A'
sg29
S'O'
sg30
g31
sg32
g169
sg34
F15.9994
sg35
g170
sbsg37
g38
(g39
(I0
tS'b'
tRp3653
(I1
(I3
tg42
I00
S"\xa8p\xa0N\xfc\xa2\xf2?\xd0\xa7R'w\xfc\xe6?N\x97\xcfi%\xa8\xe4?"
tbsg43
(lp3654
sbassI14
(dp3655
g15
(lp3656
g8
(g17
g10
NtRp3657
(dp3658
g20
g8
(g21
g10
NtRp3659
(dp3660
g24
g179
sg26
I1
sg27
F0.050000000000000003
sg28
S'A'
sg29
S'C'
sg30
g31
sg32
g180
sg34
F12.0107
sg35
g181
sbsg37
g38
(g39
(I0
tS'b'
tRp3661
(I1
(I3
tg42
I00
S'\xfbB\x1d\xfb\x00k\x07@\xd0\xf1\xb4+v\t\x01@\xa27\xa3A\xaa\xab\xe4?'
tbsg43
(lp3662
sbassI15
(dp3663
g15
(lp3664
g8
(g17
g10
NtRp3665
(dp3666
g20
g8
(g21
g10
NtRp3667
(dp3668
g24
g190
sg26
I1
sg27
F-0.65000000000000002
sg28
S'A'
sg29
S'O'
sg30
g31
sg32
g191
sg34
F15.9994
sg35
g192
sbsg37
g38
(g39
(I0
tS'b'
tRp3669
(I1
(I3
tg42
I00
S'6\x8e=E\xa8d\n@p\xfa\x1b2%\x17\xeb?\x81\xce\xae\xb3\x13\x12\xf2?'
tbsg43
(lp3670
sbassI16
(dp3671
g15
(lp3672
g8
(g17
g10
NtRp3673
(dp3674
g20
g8
(g21
g10
NtRp3675
(dp3676
g24
g201
sg26
I1
sg27
F0.10000000000000001
sg28
S'A'
sg29
S'H'
sg30
g31
sg32
S'H'
sg34
F1.0079
sg35
g202
sbsg37
g38
(g39
(I0
tS'b'
tRp3677
(I1
(I3
tg42
I00
S"'6=\x9eV\\\xe2?\x00H6\xb9\x88`p?\x91\x02\xef\x19\x00\xf5\xf3\xbf"
tbsg43
(lp3678
sbassI17
(dp3679
g15
(lp3680
g8
(g17
g10
NtRp3681
(dp3682
g20
g8
(g21
g10
NtRp3683
(dp3684
g24
g211
sg26
I1
sg27
F0.40000000000000002
sg28
S'A'
sg29
S'H'
sg30
g31
sg32
g212
sg34
F1.0079
sg35
g213
sbsg37
g38
(g39
(I0
tS'b'
tRp3685
(I1
(I3
tg42
I00
S'\xda\xdd\x10Z\x98\x81\xf7\xbf\xe02\xa9Y\xbe\xb5\xd9\xbf\xf6\xd9tfp\x96\xef?'
tbsg43
(lp3686
sbassI18
(dp3687
g15
(lp3688
g8
(g17
g10
NtRp3689
(dp3690
g20
g8
(g21
g10
NtRp3691
(dp3692
g24
g222
sg26
I1
sg27
F0.40000000000000002
sg28
S'A'
sg29
S'H'
sg30
g31
sg32
g223
sg34
F1.0079
sg35
g224
sbsg37
g38
(g39
(I0
tS'b'
tRp3693
(I1
(I3
tg42
I00
S'\xb2&\xfe\xd0\xfc\xce\x00\xc0\xc0\xd64\x94\x01k\xfc?H\x02\xac(\xcb`\xf8?'
tbsg43
(lp3694
sbassI19
(dp3695
g15
(lp3696
g8
(g17
g10
NtRp3697
(dp3698
g20
g8
(g21
g10
NtRp3699
(dp3700
g24
g233
sg26
I1
sg27
F0.10000000000000001
sg28
S'A'
sg29
S'H'
sg30
g31
sg32
S'H'
sg34
F1.0079
sg35
g234
sbsg37
g38
(g39
(I0
tS'b'
tRp3701
(I1
(I3
tg42
I00
S'\x93\xfd\xc6\xbd\xf1\x92\x07@\xf0iLU\xb7\xd6\x06@#\x93\xd4\xbe\xd8\xcf\xf7?'
tbsg43
(lp3702
sbassI20
(dp3703
g15
(lp3704
g8
(g17
g10
NtRp3705
(dp3706
g20
g8
(g21
g10
NtRp3707
(dp3708
g24
g243
sg26
I1
sg27
F0.10000000000000001
sg28
S'A'
sg29
S'H'
sg30
g31
sg32
S'H'
sg34
F1.0079
sg35
g244
sbsg37
g38
(g39
(I0
tS'b'
tRp3709
(I1
(I3
tg42
I00
S'+Z\xff\xc1V*\r@\x90\xcc\xc3\xba%\xa9\x03@\x10\xba\xb0\xa9\xbf\xa3\xc1\xbf'
tbsg43
(lp3710
sbassI21
(dp3711
g15
(lp3712
g8
(g17
g10
NtRp3713
(dp3714
g20
g8
(g21
g10
NtRp3715
(dp3716
g24
g253
sg26
I1
sg27
F0.40000000000000002
sg28
S'A'
sg29
S'H'
sg30
g31
sg32
g254
sg34
F1.0079
sg35
g255
sbsg37
g38
(g39
(I0
tS'b'
tRp3717
(I1
(I3
tg42
I00
S'\xe9\xb2\xb6\x0c\xab\xd5\x03@ \xe0.\x16\xa9#\xdd?xG\x04\x0cS\n\xf7?'
tbsg43
(lp3718
sbassI22
(dp3719
g15
(lp3720
g8
(g17
g10
NtRp3721
(dp3722
g20
g8
(g21
g10
NtRp3723
(dp3724
g24
g25
sg26
I1
sg27
F0.34999999999999998
sg28
S'A'
sg29
S'C'
sg30
g31
sg32
g33
sg34
F12.0107
sg35
g36
sbsg37
g38
(g39
(I0
tS'b'
tRp3725
(I1
(I3
tg42
I00
S'\x7fy-\xa2\xfd\xae\xe3?\xc0\x8a$\x92W\xd7\x15@\xaa\xb5T\xb6"4\xe5?'
tbsg43
(lp3726
sbassI23
(dp3727
g15
(lp3728
g8
(g17
g10
NtRp3729
(dp3730
g20
g8
(g21
g10
NtRp3731
(dp3732
g24
g51
sg26
I1
sg27
F0.14999999999999999
sg28
S'A'
sg29
S'C'
sg30
g31
sg32
g52
sg34
F12.0107
sg35
g53
sbsg37
g38
(g39
(I0
tS'b'
tRp3733
(I1
(I3
tg42
I00
S'_\x9e\xcdn\xd0\x1d\xfd?@\xad\x95"tw\x19@81\xc8\xf8{\xfb\xe2?'
tbsg43
(lp3734
sbassI24
(dp3735
g15
(lp3736
g8
(g17
g10
NtRp3737
(dp3738
g20
g8
(g21
g10
NtRp3739
(dp3740
g24
g62
sg26
I1
sg27
F0.10000000000000001
sg28
S'A'
sg29
S'H'
sg30
g31
sg32
S'H'
sg34
F1.0079
sg35
g63
sbsg37
g38
(g39
(I0
tS'b'
tRp3741
(I1
(I3
tg42
I00
S'@\xe5\xf4V\xcc\xe6\x02@@\xf9\xa7FrF\x19@\xa9;\x08t\xd9\x03\xf9?'
tbsg43
(lp3742
sbassI25
(dp3743
g15
(lp3744
g8
(g17
g10
NtRp3745
(dp3746
g20
g8
(g21
g10
NtRp3747
(dp3748
g24
g72
sg26
I1
sg27
F-0.65000000000000002
sg28
S'A'
sg29
S'O'
sg30
g31
sg32
g73
sg34
F15.9994
sg35
g74
sbsg37
g38
(g39
(I0
tS'b'
tRp3749
(I1
(I3
tg42
I00
S'\xc3 Y\x11\xcc\x0f\x05@`\xd1\x88\xa80/\x17@a\xf3\xfa\x16|(\xda\xbf'
tbsg43
(lp3750
sbassI26
(dp3751
g15
(lp3752
g8
(g17
g10
NtRp3753
(dp3754
g20
g8
(g21
g10
NtRp3755
(dp3756
g24
g83
sg26
I1
sg27
F0.14999999999999999
sg28
S'A'
sg29
S'C'
sg30
g31
sg32
g84
sg34
F12.0107
sg35
g85
sbsg37
g38
(g39
(I0
tS'b'
tRp3757
(I1
(I3
tg42
I00
S'\x84OS\xe0O\x9f\xfa? CG\xd9\xafB\x1f@\xa6 \x11)9\xbc\xc5?'
tbsg43
(lp3758
sbassI27
(dp3759
g15
(lp3760
g8
(g17
g10
NtRp3761
(dp3762
g20
g8
(g21
g10
NtRp3763
(dp3764
g24
g94
sg26
I1
sg27
F0.10000000000000001
sg28
S'A'
sg29
S'H'
sg30
g31
sg32
S'H'
sg34
F1.0079
sg35
g95
sbsg37
g38
(g39
(I0
tS'b'
tRp3765
(I1
(I3
tg42
I00
S'\xdf\xdf\xf5:\xf4\t\x01@\x94\xdaQ\x1d\xa6\xeb @\xfeV\xcdVl5\xee?'
tbsg43
(lp3766
sbassI28
(dp3767
g15
(lp3768
g8
(g17
g10
NtRp3769
(dp3770
g20
g8
(g21
g10
NtRp3771
(dp3772
g24
g104
sg26
I1
sg27
F-0.65000000000000002
sg28
S'A'
sg29
S'O'
sg30
g31
sg32
g105
sg34
F15.9994
sg35
g106
sbsg37
g38
(g39
(I0
tS'b'
tRp3773
(I1
(I3
tg42
I00
S'Q\xfd\xd9\xe2\r~\x03@\x00=j\xa1G\xbe\x1f@k\xcb\xd6\x11+\r\xf0\xbf'
tbsg43
(lp3774
sbassI29
(dp3775
g15
(lp3776
g8
(g17
g10
NtRp3777
(dp3778
g20
g8
(g21
g10
NtRp3779
(dp3780
g24
g115
sg26
I1
sg27
F0.14999999999999999
sg28
S'A'
sg29
S'C'
sg30
g31
sg32
g116
sg34
F12.0107
sg35
g117
sbsg37
g38
(g39
(I0
tS'b'
tRp3781
(I1
(I3
tg42
I00
S'\xdbQ\xd1\xe9\xeci\xd1?\x94\x88\xcd\\\xf1\xa5 @\xe6j2\xde$\x9f\xba\xbf'
tbsg43
(lp3782
sbassI30
(dp3783
g15
(lp3784
g8
(g17
g10
NtRp3785
(dp3786
g20
g8
(g21
g10
NtRp3787
(dp3788
g24
g126
sg26
I1
sg27
F0.10000000000000001
sg28
S'A'
sg29
S'H'
sg30
g31
sg32
S'H'
sg34
F1.0079
sg35
g127
sbsg37
g38
(g39
(I0
tS'b'
tRp3789
(I1
(I3
tg42
I00
S'\xb4>\xfd\x92J\x0f\xc0?\x94\x9d\xde\xe6,"!@\x83\x9c\xf1|q\xd6\xf2\xbf'
tbsg43
(lp3790
sbassI31
(dp3791
g15
(lp3792
g8
(g17
g10
NtRp3793
(dp3794
g20
g8
(g21
g10
NtRp3795
(dp3796
g24
g136
sg26
I1
sg27
F-0.55000000000000004
sg28
S'A'
sg29
S'O'
sg30
g31
sg32
g137
sg34
F15.9994
sg35
g138
sbsg37
g38
(g39
(I0
tS'b'
tRp3797
(I1
(I3
tg42
I00
S'\x81I\xa5\x1f\x11\x06\xc5?D`\x9b\xab\xe3\x11#@t|\xc7\xb7\xf7m\xe6?'
tbsg43
(lp3798
sbassI32
(dp3799
g15
(lp3800
g8
(g17
g10
NtRp3801
(dp3802
g20
g8
(g21
g10
NtRp3803
(dp3804
g24
g147
sg26
I1
sg27
F0.10000000000000001
sg28
S'A'
sg29
S'C'
sg30
g31
sg32
g148
sg34
F12.0107
sg35
g149
sbsg37
g38
(g39
(I0
tS'b'
tRp3805
(I1
(I3
tg42
I00
S'\xee\xb4\xaf\x1c^D\xe8\xbf\xa0\x18\xab"O/\x1d@\xfc\x93\x80\x9b\xf1\x92\xd7?'
tbsg43
(lp3806
sbassI33
(dp3807
g15
(lp3808
g8
(g17
g10
NtRp3809
(dp3810
g20
g8
(g21
g10
NtRp3811
(dp3812
g24
g158
sg26
I1
sg27
F0.10000000000000001
sg28
S'A'
sg29
S'H'
sg30
g31
sg32
S'H'
sg34
F1.0079
sg35
g159
sbsg37
g38
(g39
(I0
tS'b'
tRp3813
(I1
(I3
tg42
I00
S'O-\x85\x84\x1a)\xe9\xbf`\x9a~\xc0j\xe3\x1c@\x0b\x92\xea\xb5\xbf\xa0\xf7?'
tbsg43
(lp3814
sbassI34
(dp3815
g15
(lp3816
g8
(g17
g10
NtRp3817
(dp3818
g20
g8
(g21
g10
NtRp3819
(dp3820
g24
g168
sg26
I1
sg27
F-0.40000000000000002
sg28
S'A'
sg29
S'O'
sg30
g31
sg32
g169
sg34
F15.9994
sg35
g170
sbsg37
g38
(g39
(I0
tS'b'
tRp3821
(I1
(I3
tg42
I00
S'\x04:\x14\x98\xf6X\xd7\xbf\xc0`G\x8d\x9f#\x18@\x0c\x83\x9dN\xe4\x95\xc8\xbf'
tbsg43
(lp3822
sbassI35
(dp3823
g15
(lp3824
g8
(g17
g10
NtRp3825
(dp3826
g20
g8
(g21
g10
NtRp3827
(dp3828
g24
g179
sg26
I1
sg27
F0.050000000000000003
sg28
S'A'
sg29
S'C'
sg30
g31
sg32
g180
sg34
F12.0107
sg35
g181
sbsg37
g38
(g39
(I0
tS'b'
tRp3829
(I1
(I3
tg42
I00
S'\xd8\x91\xcf\xa6\xa1\x04\x01\xc0\xa0\x847\xbe\xcb\xc8\x1d@\x92\x04\xec\xad\xf7\xa3\xc8\xbf'
tbsg43
(lp3830
sbassI36
(dp3831
g15
(lp3832
g8
(g17
g10
NtRp3833
(dp3834
g20
g8
(g21
g10
NtRp3835
(dp3836
g24
g190
sg26
I1
sg27
F-0.65000000000000002
sg28
S'A'
sg29
S'O'
sg30
g31
sg32
g191
sg34
F15.9994
sg35
g192
sbsg37
g38
(g39
(I0
tS'b'
tRp3837
(I1
(I3
tg42
I00
S'\x16\xdd\xef\xf0H\xfe\x03\xc0\x00\x8b\xa0N\xf5\xa6\x18@bf5\x11{\xa1\xe5\xbf'
tbsg43
(lp3838
sbassI37
(dp3839
g15
(lp3840
g8
(g17
g10
NtRp3841
(dp3842
g20
g8
(g21
g10
NtRp3843
(dp3844
g24
g201
sg26
I1
sg27
F0.10000000000000001
sg28
S'A'
sg29
S'H'
sg30
g31
sg32
S'H'
sg34
F1.0079
sg35
g202
sbsg37
g38
(g39
(I0
tS'b'
tRp3845
(I1
(I3
tg42
I00
S'\xcc8\xe6\xcb\x9a\xf4\xcc?@Y\x8b\xca(H\x15@\xcb\x1d\x03EV6\xfb?'
tbsg43
(lp3846
sbassI38
(dp3847
g15
(lp3848
g8
(g17
g10
NtRp3849
(dp3850
g20
g8
(g21
g10
NtRp3851
(dp3852
g24
g211
sg26
I1
sg27
F0.40000000000000002
sg28
S'A'
sg29
S'H'
sg30
g31
sg32
g212
sg34
F1.0079
sg35
g213
sbsg37
g38
(g39
(I0
tS'b'
tRp3853
(I1
(I3
tg42
I00
S"\xfe\x1fV\x81+'\x02@\x80x\xc2\xc2\xb4\xa8\x13@\x84\xa3L\x10\xc4\x13\xe1\xbf"
tbsg43
(lp3854
sbassI39
(dp3855
g15
(lp3856
g8
(g17
g10
NtRp3857
(dp3858
g20
g8
(g21
g10
NtRp3859
(dp3860
g24
g222
sg26
I1
sg27
F0.40000000000000002
sg28
S'A'
sg29
S'H'
sg30
g31
sg32
g223
sg34
F1.0079
sg35
g224
sbsg37
g38
(g39
(I0
tS'b'
tRp3861
(I1
(I3
tg42
I00
S'\xc7\xd7K%\\5\x07@`Aj\r\xd1^\x1c@\x10\xe7\x97\xfdt\x1f\xf1\xbf'
tbsg43
(lp3862
sbassI40
(dp3863
g15
(lp3864
g8
(g17
g10
NtRp3865
(dp3866
g20
g8
(g21
g10
NtRp3867
(dp3868
g24
g233
sg26
I1
sg27
F0.10000000000000001
sg28
S'A'
sg29
S'H'
sg30
g31
sg32
S'H'
sg34
F1.0079
sg35
g234
sbsg37
g38
(g39
(I0
tS'b'
tRp3869
(I1
(I3
tg42
I00
S'{Lyi\x92,\x01\xc0d\xa0\x81)\xb6W @\xe0w\xc0\x93\x82\x8e\xf0\xbf'
tbsg43
(lp3870
sbassI41
(dp3871
g15
(lp3872
g8
(g17
g10
NtRp3873
(dp3874
g20
g8
(g21
g10
NtRp3875
(dp3876
g24
g243
sg26
I1
sg27
F0.10000000000000001
sg28
S'A'
sg29
S'H'
sg30
g31
sg32
S'H'
sg34
F1.0079
sg35
g244
sbsg37
g38
(g39
(I0
tS'b'
tRp3877
(I1
(I3
tg42
I00
S'\x1f\xa9\xb1m\xf7\xc3\x06\xc0\x00\xf2\xbe\x85\xa3\x18\x1f@\xf2d\x94@\x9c\xeb\xe2?'
tbsg43
(lp3878
sbassI42
(dp3879
g15
(lp3880
g8
(g17
g10
NtRp3881
(dp3882
g20
g8
(g21
g10
NtRp3883
(dp3884
g24
g253
sg26
I1
sg27
F0.40000000000000002
sg28
S'A'
sg29
S'H'
sg30
g31
sg32
g254
sg34
F1.0079
sg35
g255
sbsg37
g38
(g39
(I0
tS'b'
tRp3885
(I1
(I3
tg42
I00
S'\x88\x03\xd2p\x97\xde\xfa\xbf\xc0\xf9\xbf9K\x16\x17@XX\xe0\xc1\xf9\x91\xef\xbf'
tbsg43
(lp3886
sbassI43
(dp3887
S'attrs'
p3888
(lp3889
g8
(g17
g10
NtRp3890
(dp3891
g20
g8
(g21
g10
NtRp3892
(dp3893
g24
S'H'
sg26
I1
sg27
F0.10000000000000001
sg28
S'A'
sg29
S'H'
sg30
S'ELT'
p3894
sg32
S'H'
sg34
F1.0079400000000001
sg35
S'H'
sbsg37
g38
(g39
(I0
tS'b'
tRp3895
(I1
(I3
tg42
I00
S'\xd3\xf0`q\xeey\xd4?\xc0\x95\xe0\x0c9_\xd4\xbf\xd6\x1b)\xf6\xfe\x0c\xeb?'
tbsg43
(lp3896
sbasssg435
(dp3897
sg437
I00
sg438
(lp3898
(lp3899
I1
aI0
aI0
aI0
aa(lp3900
I0
aI1
aI0
aI0
aa(lp3901
I0
aI0
aI1
aI0
aa(lp3902
I0
aI0
aI0
aI1
aasg444
(dp3903
sg32
S'Cellulose_s'
p3904
sg447
(dp3905
I1
(dp3906
I16
(dp3907
sI2
(dp3908
sI43
(dp3909
sI13
(dp3910
ssI2
(dp3911
I1
g3908
sI3
(dp3912
sI4
(dp3913
sI5
(dp3914
ssI3
(dp3915
I2
g3912
ssI4
(dp3916
I17
(dp3917
sI2
g3913
ssI5
(dp3918
I8
(dp3919
sI2
g3914
sI6
(dp3920
sI7
(dp3921
ssI6
(dp3922
I5
g3920
ssI7
(dp3923
I18
(dp3924
sI5
g3921
ssI8
(dp3925
I9
(dp3926
sI10
(dp3927
sI11
(dp3928
sI5
g3919
ssI9
(dp3929
I8
g3926
ssI10
(dp3930
I8
g3927
sI22
(dp3931
ssI11
(dp3932
I8
g3928
sI12
(dp3933
sI13
(dp3934
sI14
(dp3935
ssI12
(dp3936
I11
g3933
ssI13
(dp3937
I1
g3910
sI11
g3934
ssI14
(dp3938
I11
g3935
sI19
(dp3939
sI20
(dp3940
sI15
(dp3941
ssI15
(dp3942
I21
(dp3943
sI14
g3941
ssI16
(dp3944
I1
g3907
ssI17
(dp3945
I4
g3917
ssI18
(dp3946
I7
g3924
ssI19
(dp3947
I14
g3939
ssI20
(dp3948
I14
g3940
ssI21
(dp3949
I15
g3943
ssI22
(dp3950
I34
(dp3951
sI23
(dp3952
sI10
g3931
sI37
(dp3953
ssI23
(dp3954
I24
(dp3955
sI25
(dp3956
sI26
(dp3957
sI22
g3952
ssI24
(dp3958
I23
g3955
ssI25
(dp3959
I38
(dp3960
sI23
g3956
ssI26
(dp3961
I27
(dp3962
sI28
(dp3963
sI29
(dp3964
sI23
g3957
ssI27
(dp3965
I26
g3962
ssI28
(dp3966
I26
g3963
sI39
(dp3967
ssI29
(dp3968
I32
(dp3969
sI26
g3964
sI30
(dp3970
sI31
(dp3971
ssI30
(dp3972
I29
g3970
ssI31
(dp3973
I29
g3971
ssI32
(dp3974
I33
(dp3975
sI34
(dp3976
sI35
(dp3977
sI29
g3969
ssI33
(dp3978
I32
g3975
ssI34
(dp3979
I32
g3976
sI22
g3951
ssI35
(dp3980
I32
g3977
sI40
(dp3981
sI36
(dp3982
sI41
(dp3983
ssI36
(dp3984
I42
(dp3985
sI35
g3982
ssI37
(dp3986
I22
g3953
ssI38
(dp3987
I25
g3960
ssI39
(dp3988
I28
g3967
ssI40
(dp3989
I35
g3981
ssI41
(dp3990
I35
g3983
ssI42
(dp3991
I36
g3985
ssI43
(dp3992
I1
g3909
sssg536
g8
(g537
g10
NtRp3993
(dp3994
g540
(dp3995
sg542
(dp3996
sg544
(dp3997
sg546
g547
sg548
(dp3998
g552
(lp3999
F222.5
aF1.5
asg556
(lp4000
F309
aF1.111
asg559
(lp4001
F428
aF1.4199999999999999
asg562
(lp4002
F428
aF1.4199999999999999
asg566
(lp4003
F222.5
aF1.5
asg570
(lp4004
F309
aF1.111
asg574
(lp4005
F545
aF0.95999999999999996
asg577
(lp4006
F428
aF1.4199999999999999
asg579
(lp4007
F428
aF1.4199999999999999
asg610
(lp4008
F428
aF1.4199999999999999
asg584
(lp4009
F222.5
aF1.5
asg587
(lp4010
F309
aF1.111
asg589
(lp4011
F222.5
aF1.5
asg591
(lp4012
F428
aF1.4199999999999999
asg594
(lp4013
F309
aF1.111
as(g25
S'H'
tp4014
(lp4015
F309
aF1.111
asg597
(lp4016
F545
aF0.95999999999999996
asg603
(lp4017
F545
aF0.95999999999999996
asg606
(lp4018
F309
aF1.111
asg608
(lp4019
F222.5
aF1.5
asg582
(lp4020
F309
aF1.111
asg613
(lp4021
F309
aF1.111
asg615
(lp4022
F428
aF1.4199999999999999
assg617
(dp4023
g619
(lp4024
F78.195999999999998
aF108.89
asg621
(lp4025
F91.787999999999997
aF111
asg623
(lp4026
F119.044
aF106
asg625
(lp4027
F79.373999999999995
aF110.09999999999999
asg627
(lp4028
F78.195999999999998
aF108.89
asg629
(lp4029
F119.044
aF106
asg631
(lp4030
F113.39100000000001
aF110.09999999999999
asg633
(lp4031
F91.787999999999997
aF111
asg635
(lp4032
F79.373999999999995
aF110.09999999999999
asg637
(lp4033
F79.373999999999995
aF110.09999999999999
asg639
(lp4034
F113.39100000000001
aF110.09999999999999
asg641
(lp4035
F107.179
aF105
asg643
(lp4036
F107.179
aF105
asg645
(lp4037
F79.373999999999995
aF110.09999999999999
asg647
(lp4038
F79.373999999999995
aF110.09999999999999
asg649
(lp4039
F78.299000000000007
aF109
asg651
(lp4040
F107.179
aF105
asg653
(lp4041
F76.739999999999995
aF107.23999999999999
asg655
(lp4042
F214.084
aF111.55
asg657
(lp4043
F131.929
aF107.5
asg659
(lp4044
F131.929
aF107.5
asg661
(lp4045
F113.39100000000001
aF110.09999999999999
asg663
(lp4046
F79.373999999999995
aF110.09999999999999
asg665
(lp4047
F79.373999999999995
aF110.09999999999999
asg667
(lp4048
F79.373999999999995
aF110.09999999999999
asg669
(lp4049
F119.044
aF106
asg671
(lp4050
F91.787999999999997
aF111
asg673
(lp4051
F76.739999999999995
aF107.23999999999999
asg675
(lp4052
F113.39100000000001
aF110.09999999999999
asg677
(lp4053
F79.373999999999995
aF110.09999999999999
asg679
(lp4054
F107.179
aF105
asg681
(lp4055
F78.195999999999998
aF108.89
asg683
(lp4056
F76.739999999999995
aF107.23999999999999
asg685
(lp4057
F113.39100000000001
aF110.09999999999999
asg687
(lp4058
F91.787999999999997
aF111
asg689
(lp4059
F107.179
aF105
asg691
(lp4060
F107.179
aF105
asg693
(lp4061
F79.373999999999995
aF110.09999999999999
asg695
(lp4062
F76.739999999999995
aF107.23999999999999
asg697
(lp4063
F78.195999999999998
aF108.89
asg699
(lp4064
F79.373999999999995
aF110.09999999999999
assg701
(dp4065
g573
(lp4066
F-0.19209999999999999
aF1.7649999999999999
aF-0.65000000000000002
asg568
(lp4067
F-0.032000000000000001
aF2
aF0.050000000000000003
asg602
(lp4068
F-0.19209999999999999
aF1.7649999999999999
aF-0.65000000000000002
asg605
(lp4069
F-0.044999999999999998
aF1.3400000000000001
aF0.10000000000000001
asg550
(lp4070
F-0.032000000000000001
aF2
aF0.14999999999999999
asg586
(lp4071
F-0.044999999999999998
aF1.3400000000000001
aF0.10000000000000001
asg564
(lp4072
F-0.032000000000000001
aF2
aF0.14999999999999999
asg551
(lp4073
F-0.032000000000000001
aF2
aF0.10000000000000001
asg612
(lp4074
F-0.044999999999999998
aF1.3400000000000001
aF0.10000000000000001
asg555
(lp4075
F-0.044999999999999998
aF1.3400000000000001
aF0.10000000000000001
asg561
(lp4076
F-0.19209999999999999
aF1.7649999999999999
aF-0.5
asS'H'
(lp4077
F-0.029999999999999999
aF1.3582000000000001
aF0
asg593
(lp4078
F-0.044999999999999998
aF1.3400000000000001
aF0.10000000000000001
asg572
(lp4079
F-0.045999999999999999
aF0.22450000000000001
aF0.40000000000000002
asg558
(lp4080
F-0.19209999999999999
aF1.7649999999999999
aF-0.40000000000000002
asg581
(lp4081
F-0.044999999999999998
aF1.3400000000000001
aF0.10000000000000001
asg569
(lp4082
F-0.044999999999999998
aF1.3400000000000001
aF0.10000000000000001
asg601
(lp4083
F-0.045999999999999999
aF0.22450000000000001
aF0.40000000000000002
asg565
(lp4084
F-0.032000000000000001
aF2
aF0.14999999999999999
asg596
(lp4085
F-0.045999999999999999
aF0.22450000000000001
aF0.40000000000000002
asg576
(lp4086
F-0.19209999999999999
aF1.7649999999999999
aF-0.65000000000000002
asg554
(lp4087
F-0.032000000000000001
aF2
aF0.34999999999999998
assg725
g726
sg727
(dp4088
g729
(lp4089
F0.59999999999999998
aI1
aF180
asg731
(lp4090
F0.10000000000000001
aI3
aF180
asg733
(lp4091
F0.14999999999999999
aI3
aF180
asg735
(lp4092
F0.14999999999999999
aI3
aF180
asg737
(lp4093
F-1.8400000000000001
aI1
aF180
asg739
(lp4094
F0.14999999999999999
aI3
aF180
asg741
(lp4095
F-1.1499999999999999
aI1
aF180
asg743
(lp4096
F0.14999999999999999
aI3
aF180
asg745
(lp4097
F0.14999999999999999
aI3
aF180
asg747
(lp4098
F0.59999999999999998
aI1
aF180
asg749
(lp4099
F0.14999999999999999
aI3
aF180
asg751
(lp4100
F0.14999999999999999
aI3
aF180
asg753
(lp4101
F0.82999999999999996
aI1
aF180
asg755
(lp4102
F-1.6299999999999999
aI1
aF180
asg757
(lp4103
F0.14000000000000001
aI3
aF180
asg759
(lp4104
F0.14999999999999999
aI3
aF180
asg761
(lp4105
F0.14000000000000001
aI3
aF180
asg763
(lp4106
F0.14999999999999999
aI3
aF180
asg765
(lp4107
F0.14999999999999999
aI3
aF180
asg767
(lp4108
F0.14000000000000001
aI3
aF180
asg769
(lp4109
F0.14999999999999999
aI3
aF180
asg771
(lp4110
F0.14999999999999999
aI3
aF180
asg773
(lp4111
F-1.8400000000000001
aI1
aF180
asg775
(lp4112
F0.14999999999999999
aI3
aF180
asg777
(lp4113
F0.14000000000000001
aI3
aF180
asg779
(lp4114
F0.14999999999999999
aI3
aF180
asg781
(lp4115
F0.14999999999999999
aI3
aF180
asg783
(lp4116
F0.14999999999999999
aI3
aF180
asg785
(lp4117
F0.82999999999999996
aI1
aF180
asg787
(lp4118
F0.14000000000000001
aI3
aF180
asg789
(lp4119
F0.14999999999999999
aI3
aF180
asg791
(lp4120
F0.14000000000000001
aI3
aF180
asg793
(lp4121
F0.14999999999999999
aI3
aF180
asg795
(lp4122
F0.14000000000000001
aI3
aF180
asg797
(lp4123
F0.14000000000000001
aI3
aF180
asg799
(lp4124
F0.14999999999999999
aI3
aF180
asg2925
(lp4125
F0.59999999999999998
aF1
aF180
asg803
(lp4126
F0.14000000000000001
aI3
aF180
asg805
(lp4127
F0.14999999999999999
aI3
aF180
asg807
(lp4128
F0.14999999999999999
aI3
aF180
asg809
(lp4129
F-1.1499999999999999
aI1
aF180
asg811
(lp4130
F0.82999999999999996
aI1
aF180
asg813
(lp4131
F0.14999999999999999
aI3
aF180
asg815
(lp4132
F-1.8400000000000001
aI1
aF180
asg817
(lp4133
F0
aI0
aF0
asg819
(lp4134
F0.14999999999999999
aI3
aF180
asg821
(lp4135
F-1.8400000000000001
aI1
aF180
asg823
(lp4136
F0.14999999999999999
aI3
aF180
asg825
(lp4137
F0.14999999999999999
aI3
aF180
asg827
(lp4138
F0
aI0
aF0
asg829
(lp4139
F0.14999999999999999
aI3
aF180
asg831
(lp4140
F0.59999999999999998
aI1
aF180
asg833
(lp4141
F0.14999999999999999
aI3
aF180
asg835
(lp4142
F0.14999999999999999
aI3
aF180
asg837
(lp4143
F0.59999999999999998
aI1
aF180
asg839
(lp4144
F0.14999999999999999
aI3
aF180
asg841
(lp4145
F0.14999999999999999
aI3
aF180
asg843
(lp4146
F0.14999999999999999
aI3
aF180
asg845
(lp4147
F0.14999999999999999
aI3
aF180
asg847
(lp4148
F0.14999999999999999
aI3
aF180
asg849
(lp4149
F0.14000000000000001
aI3
aF180
asg851
(lp4150
F0.14999999999999999
aI3
aF180
asg853
(lp4151
F0.14999999999999999
aI3
aF180
assbsg855
g3905
sbassS'CelluloseB_s_1'
p4152
(dp4153
g6
(lp4154
g8
(g9
g10
NtRp4155
(dp4156
g2
(dp4157
I1
(dp4158
g863
(lp4159
g8
(g17
g10
NtRp4160
(dp4161
g20
g8
(g21
g10
NtRp4162
(dp4163
g24
g869
sg26
I1
sg27
F0.34999999999999998
sg28
S'A'
sg29
S'C'
sg30
g870
sg32
g871
sg34
F12.0107
sg35
g872
sbsg37
g38
(g39
(I0
tS'b'
tRp4164
(I1
(I3
tg874
I00
S'\xc2l\x86\x1569\xd4?\xd6\x99\x84\x17s\xe0\xd8?\xa2\x88O\xc4\x06?\x9e?'
tbsg43
(lp4165
sbassI2
(dp4166
g863
(lp4167
g8
(g17
g10
NtRp4168
(dp4169
g20
g8
(g21
g10
NtRp4170
(dp4171
g24
g882
sg26
I1
sg27
F0.14999999999999999
sg28
S'A'
sg29
S'C'
sg30
g870
sg32
g883
sg34
F12.0107
sg35
g884
sbsg37
g38
(g39
(I0
tS'b'
tRp4172
(I1
(I3
tg874
I00
S'\x1f\x8d\xaa0\x08p\xec\xbfv\xb0\xa5\x07\x8f\xb8\xf4?\x90\x05x\x9d\xf7T\xb9?'
tbsg43
(lp4173
sbassI3
(dp4174
g863
(lp4175
g8
(g17
g10
NtRp4176
(dp4177
g20
g8
(g21
g10
NtRp4178
(dp4179
g24
g893
sg26
I1
sg27
F0.10000000000000001
sg28
S'A'
sg29
S'H'
sg30
g870
sg32
S'H'
sg34
F1.0079
sg35
g894
sbsg37
g38
(g39
(I0
tS'b'
tRp4180
(I1
(I3
tg874
I00
S'\xb7rqW\xcc\xe7\xf6\xbf\xb6\xe0\xee\x97\x87\xf4\xf3?EE\x99\xfb\x97\xe1\xeb\xbf'
tbsg43
(lp4181
sbassI4
(dp4182
g863
(lp4183
g8
(g17
g10
NtRp4184
(dp4185
g20
g8
(g21
g10
NtRp4186
(dp4187
g24
g903
sg26
I1
sg27
F-0.65000000000000002
sg28
S'A'
sg29
S'O'
sg30
g870
sg32
g904
sg34
F15.9994
sg35
g905
sbsg37
g38
(g39
(I0
tS'b'
tRp4188
(I1
(I3
tg874
I00
S'\x9f\xe99\xcc\xcb9\xfb\xbf+\x82\xe4>\x02/\xe7?\xeaU\xfa{,\x9d\xf1?'
tbsg43
(lp4189
sbassI8
(dp4190
g863
(lp4191
g8
(g17
g10
NtRp4192
(dp4193
g20
g8
(g21
g10
NtRp4194
(dp4195
g24
g914
sg26
I1
sg27
F0.14999999999999999
sg28
S'A'
sg29
S'C'
sg30
g870
sg32
g915
sg34
F12.0107
sg35
g916
sbsg37
g38
(g39
(I0
tS'b'
tRp4196
(I1
(I3
tg874
I00
S'\x01\x07\x088\xa2\x16\xe5?\x07\xa0\xdd\xb1$\x05\n@Y\x7f=\x88\xffy\xe9?'
tbsg43
(lp4197
sbassI9
(dp4198
g863
(lp4199
g8
(g17
g10
NtRp4200
(dp4201
g20
g8
(g21
g10
NtRp4202
(dp4203
g24
g925
sg26
I1
sg27
F0.10000000000000001
sg28
S'A'
sg29
S'H'
sg30
g870
sg32
S'H'
sg34
F1.0079
sg35
g926
sbsg37
g38
(g39
(I0
tS'b'
tRp4204
(I1
(I3
tg874
I00
S'!`1\x08\xc6\xc7\xe9?\x17\xf4!\xda\x12\xf6\x0b@}5-\xf3~\xe9\xfd?'
tbsg43
(lp4205
sbassI10
(dp4206
g863
(lp4207
g8
(g17
g10
NtRp4208
(dp4209
g20
g8
(g21
g10
NtRp4210
(dp4211
g24
g935
sg26
I1
sg27
F-0.5
sg28
S'A'
sg29
S'O'
sg30
g870
sg32
g936
sg34
F15.9994
sg35
g937
sbsg37
g38
(g39
(I0
tS'b'
tRp4212
(I1
(I3
tg874
I00
S'\x81]\x07e\x14\x8a\xe8?q\x7f\x8a\xf6v\xda\x11@\xa0\x96\x12\xd42\xf7\x81\xbf'
tbsg43
(lp4213
sbassI11
(dp4214
g863
(lp4215
g8
(g17
g10
NtRp4216
(dp4217
g20
g8
(g21
g10
NtRp4218
(dp4219
g24
g946
sg26
I1
sg27
F0.10000000000000001
sg28
S'A'
sg29
S'C'
sg30
g870
sg32
g947
sg34
F12.0107
sg35
g948
sbsg37
g38
(g39
(I0
tS'b'
tRp4220
(I1
(I3
tg874
I00
S'q2\xd0d\xfb\x07\xfb?\x17\xaf\xfd\x83\xfd\xcb\x01@\xf9\xcfm=D\xb9\xd4?'
tbsg43
(lp4221
sbassI12
(dp4222
g863
(lp4223
g8
(g17
g10
NtRp4224
(dp4225
g20
g8
(g21
g10
NtRp4226
(dp4227
g24
g957
sg26
I1
sg27
F0.10000000000000001
sg28
S'A'
sg29
S'H'
sg30
g870
sg32
S'H'
sg34
F1.0079
sg35
g958
sbsg37
g38
(g39
(I0
tS'b'
tRp4228
(I1
(I3
tg874
I00
S'\xa1\xee\xba\x98Yz\xfb?\xa7\xb2\xa4\xbf44\x01@3\xf2]\x7fd\x1b\xe9\xbf'
tbsg43
(lp4229
sbassI13
(dp4230
g863
(lp4231
g8
(g17
g10
NtRp4232
(dp4233
g20
g8
(g21
g10
NtRp4234
(dp4235
g24
g967
sg26
I1
sg27
F-0.40000000000000002
sg28
S'A'
sg29
S'O'
sg30
g870
sg32
g968
sg34
F15.9994
sg35
g969
sbsg37
g38
(g39
(I0
tS'b'
tRp4236
(I1
(I3
tg874
I00
S'qf}\xfc\t\xbc\xf4?\xeb\xfc\xd8dy\xd2\xee?\xc3\x92\x1e\x00\x94K\xec?'
tbsg43
(lp4237
sbassI14
(dp4238
g863
(lp4239
g8
(g17
g10
NtRp4240
(dp4241
g20
g8
(g21
g10
NtRp4242
(dp4243
g24
g978
sg26
I1
sg27
F0.050000000000000003
sg28
S'A'
sg29
S'C'
sg30
g870
sg32
g979
sg34
F12.0107
sg35
g980
sbsg37
g38
(g39
(I0
tS'b'
tRp4244
(I1
(I3
tg874
I00
S'\xe0\xbd\x0b\xd2\x87w\x08@\x17\x87\x16\xbb\xf6\xfe\x02@\x0b3\xf2\xd7\x18O\xec?'
tbsg43
(lp4245
sbassI15
(dp4246
g863
(lp4247
g8
(g17
g10
NtRp4248
(dp4249
g20
g8
(g21
g10
NtRp4250
(dp4251
g24
g989
sg26
I1
sg27
F-0.65000000000000002
sg28
S'A'
sg29
S'O'
sg30
g870
sg32
g990
sg34
F15.9994
sg35
g991
sbsg37
g38
(g39
(I0
tS'b'
tRp4252
(I1
(I3
tg874
I00
S"\x18\t,\x1c/q\x0b@\xc6'\xd1\xb7\x93v\xf1?3L\xd6\xfe\xca\xe3\xf5?"
tbsg43
(lp4253
sbassI16
(dp4254
g863
(lp4255
g8
(g17
g10
NtRp4256
(dp4257
g20
g8
(g21
g10
NtRp4258
(dp4259
g24
g1000
sg26
I1
sg27
F0.10000000000000001
sg28
S'A'
sg29
S'H'
sg30
g870
sg32
S'H'
sg34
F1.0079
sg35
g1001
sbsg37
g38
(g39
(I0
tS'b'
tRp4260
(I1
(I3
tg874
I00
S'\xa1!\xf7\xf9q\x8e\xe6?\xad\x06\xe3;\r\xdb\xcf?\xe0\x84\xc7\xceH#\xf0\xbf'
tbsg43
(lp4261
sbassI17
(dp4262
g863
(lp4263
g8
(g17
g10
NtRp4264
(dp4265
g20
g8
(g21
g10
NtRp4266
(dp4267
g24
g1010
sg26
I1
sg27
F0.40000000000000002
sg28
S'A'
sg29
S'H'
sg30
g870
sg32
g1011
sg34
F1.0079
sg35
g1012
sbsg37
g38
(g39
(I0
tS'b'
tRp4268
(I1
(I3
tg874
I00
S'\x1f\xe83\xac\x8ah\xf5\xbfS\x119\xbds\x13\xc4\xbf\xb4\xeaa~\xef\x9c\xf3?'
tbsg43
(lp4269
sbassI19
(dp4270
g863
(lp4271
g8
(g17
g10
NtRp4272
(dp4273
g20
g8
(g21
g10
NtRp4274
(dp4275
g24
g1021
sg26
I1
sg27
F0.10000000000000001
sg28
S'A'
sg29
S'H'
sg30
g870
sg32
S'H'
sg34
F1.0079
sg35
g1022
sbsg37
g38
(g39
(I0
tS'b'
tRp4276
(I1
(I3
tg874
I00
S'xx\xb5\x94x\x9f\x08@7\xff\xad\xe47\xcc\x08@\xd9\x10\xfc\t\x90\xa1\xfb?'
tbsg43
(lp4277
sbassI20
(dp4278
g863
(lp4279
g8
(g17
g10
NtRp4280
(dp4281
g20
g8
(g21
g10
NtRp4282
(dp4283
g24
g1031
sg26
I1
sg27
F0.10000000000000001
sg28
S'A'
sg29
S'H'
sg30
g870
sg32
S'H'
sg34
F1.0079
sg35
g1032
sbsg37
g38
(g39
(I0
tS'b'
tRp4284
(I1
(I3
tg874
I00
S'\x18\xd5\xed\x98\xdd6\x0e@\xd7a%J\xa6\x9e\x05@\xbaf\x16_\xf5\xd3\xb9?'
tbsg43
(lp4285
sbassI21
(dp4286
g863
(lp4287
g8
(g17
g10
NtRp4288
(dp4289
g20
g8
(g21
g10
NtRp4290
(dp4291
g24
g1041
sg26
I1
sg27
F0.40000000000000002
sg28
S'A'
sg29
S'H'
sg30
g870
sg32
g1042
sg34
F1.0079
sg35
g1043
sbsg37
g38
(g39
(I0
tS'b'
tRp4292
(I1
(I3
tg874
I00
S'\xd0-\xa5\xe31\xe2\x04@+\xc5\x9d\xc8\xd6g\xe6?0\xc5+W\n\xdc\xfa?'
tbsg43
(lp4293
sbassI22
(dp4294
g863
(lp4295
g8
(g17
g10
NtRp4296
(dp4297
g20
g8
(g21
g10
NtRp4298
(dp4299
g24
g869
sg26
I1
sg27
F0.34999999999999998
sg28
S'A'
sg29
S'C'
sg30
g870
sg32
g871
sg34
F12.0107
sg35
g872
sbsg37
g38
(g39
(I0
tS'b'
tRp4300
(I1
(I3
tg874
I00
S'\x01e\xe7\xfd\x18\xe1\xe7?eU\xd5\xd9\x17\xd2\x16@\x1d\xb1\xa3L\x91\xd7\xec?'
tbsg43
(lp4301
sbassI26
(dp4302
g863
(lp4303
g8
(g17
g10
NtRp4304
(dp4305
g20
g8
(g21
g10
NtRp4306
(dp4307
g24
g1060
sg26
I1
sg27
F0.14999999999999999
sg28
S'A'
sg29
S'C'
sg30
g870
sg32
g1061
sg34
F12.0107
sg35
g1062
sbsg37
g38
(g39
(I0
tS'b'
tRp4308
(I1
(I3
tg874
I00
S'AE0\x8e]\xb8\xfc?\xe2\x06|\x10\xb8\x1e @$\x87&\xc1\xf9$\xda?'
tbsg43
(lp4309
sbassI27
(dp4310
g863
(lp4311
g8
(g17
g10
NtRp4312
(dp4313
g20
g8
(g21
g10
NtRp4314
(dp4315
g24
g1071
sg26
I1
sg27
F0.10000000000000001
sg28
S'A'
sg29
S'H'
sg30
g870
sg32
S'H'
sg34
F1.0079
sg35
g1072
sbsg37
g38
(g39
(I0
tS'b'
tRp4316
(I1
(I3
tg874
I00
S'\xc0Z\xe4\x11{\x16\x02@\xe4?*A\x06i!@0)\x8evm\xec\xf2?'
tbsg43
(lp4317
sbassI28
(dp4318
g863
(lp4319
g8
(g17
g10
NtRp4320
(dp4321
g20
g8
(g21
g10
NtRp4322
(dp4323
g24
g1081
sg26
I1
sg27
F-0.65000000000000002
sg28
S'A'
sg29
S'O'
sg30
g870
sg32
g1082
sg34
F15.9994
sg35
g1083
sbsg37
g38
(g39
(I0
tS'b'
tRp4324
(I1
(I3
tg874
I00
S'8x\xc8\xb9\x94\x8a\x04@\xd2\x83\x8d\xf4\x83\\ @{\x9b^\x8d\xe7v\xe8\xbf'
tbsg43
(lp4325
sbassI29
(dp4326
g863
(lp4327
g8
(g17
g10
NtRp4328
(dp4329
g20
g8
(g21
g10
NtRp4330
(dp4331
g24
g914
sg26
I1
sg27
F0.14999999999999999
sg28
S'A'
sg29
S'C'
sg30
g870
sg32
g915
sg34
F12.0107
sg35
g916
sbsg37
g38
(g39
(I0
tS'b'
tRp4332
(I1
(I3
tg874
I00
S'\xc2(E\xa1#\xce\xd9?\xe4\xed\xa5\x80Q#!@8\xb8"\xea\'>\xc1?'
tbsg43
(lp4333
sbassI30
(dp4334
g863
(lp4335
g8
(g17
g10
NtRp4336
(dp4337
g20
g8
(g21
g10
NtRp4338
(dp4339
g24
g925
sg26
I1
sg27
F0.10000000000000001
sg28
S'A'
sg29
S'H'
sg30
g870
sg32
S'H'
sg34
F1.0079
sg35
g926
sbsg37
g38
(g39
(I0
tS'b'
tRp4340
(I1
(I3
tg874
I00
S'\x82v\xf2\x00\xdck\xd0?\xe4\x02\xb7\n\x8d\x9f!@\xb1=\x94ct\t\xee\xbf'
tbsg43
(lp4341
sbassI31
(dp4342
g863
(lp4343
g8
(g17
g10
NtRp4344
(dp4345
g20
g8
(g21
g10
NtRp4346
(dp4347
g24
g935
sg26
I1
sg27
F-0.59999999999999998
sg28
S'A'
sg29
S'O'
sg30
g870
sg32
g936
sg34
F15.9994
sg35
g937
sbsg37
g38
(g39
(I0
tS'b'
tRp4348
(I1
(I3
tg874
I00
S'\xc2{FG?\xe7\xd2?\x94\xc5s\xcfC\x8f#@\xe1w\x16Nf\x11\xee?'
tbsg43
(lp4349
sbassI32
(dp4350
g863
(lp4351
g8
(g17
g10
NtRp4352
(dp4353
g20
g8
(g21
g10
NtRp4354
(dp4355
g24
g946
sg26
I1
sg27
F0.10000000000000001
sg28
S'A'
sg29
S'C'
sg30
g870
sg32
g947
sg34
F12.0107
sg35
g948
sbsg37
g38
(g39
(I0
tS'b'
tRp4356
(I1
(I3
tg874
I00
S'\x7f\xc9\xf5\xc0B\x12\xe4\xbfC\xe3[j\x0f*\x1e@pE\x0fd\xe7l\xe3?'
tbsg43
(lp4357
sbassI33
(dp4358
g863
(lp4359
g8
(g17
g10
NtRp4360
(dp4361
g20
g8
(g21
g10
NtRp4362
(dp4363
g24
g957
sg26
I1
sg27
F0.10000000000000001
sg28
S'A'
sg29
S'H'
sg30
g870
sg32
S'H'
sg34
F1.0079
sg35
g958
sbsg37
g38
(g39
(I0
tS'b'
tRp4364
(I1
(I3
tg874
I00
S'\xcfA\xcb(\xff\xf6\xe4\xbf\x03e/\x08+\xde\x1d@\xc5\x0f\x12\x01wr\xfb?'
tbsg43
(lp4365
sbassI34
(dp4366
g863
(lp4367
g8
(g17
g10
NtRp4368
(dp4369
g20
g8
(g21
g10
NtRp4370
(dp4371
g24
g967
sg26
I1
sg27
F-0.40000000000000002
sg28
S'A'
sg29
S'O'
sg30
g870
sg32
g968
sg34
F15.9994
sg35
g969
sbsg37
g38
(g39
(I0
tS'b'
tRp4372
(I1
(I3
tg874
I00
S'\xfb\xc5@\xc1\x7f\xe9\xcd\xbfe+\xf8\xd4_\x1e\x19@Y\xaay*X\xdf\xa7?'
tbsg43
(lp4373
sbassI35
(dp4374
g863
(lp4375
g8
(g17
g10
NtRp4376
(dp4377
g20
g8
(g21
g10
NtRp4378
(dp4379
g24
g978
sg26
I1
sg27
F0.050000000000000003
sg28
S'A'
sg29
S'C'
sg30
g870
sg32
g979
sg34
F12.0107
sg35
g980
sbsg37
g38
(g39
(I0
tS'b'
tRp4380
(I1
(I3
tg874
I00
S'\xf7-\xc2\x9f5\xf0\xff\xbfCO\xe8\x05\x8c\xc3\x1e@9\xa4?\xad\n\xa7\xa7?'
tbsg43
(lp4381
sbassI36
(dp4382
g863
(lp4383
g8
(g17
g10
NtRp4384
(dp4385
g20
g8
(g21
g10
NtRp4386
(dp4387
g24
g989
sg26
I1
sg27
F-0.65000000000000002
sg28
S'A'
sg29
S'O'
sg30
g870
sg32
g990
sg34
F15.9994
sg35
g991
sbsg37
g38
(g39
(I0
tS'b'
tRp4388
(I1
(I3
tg874
I00
S'<b\x01\x1a\xc2\xf1\x02\xc0\xa5UQ\x96\xb5\xa1\x19@\xf2\xd5\xcc\xf5\x18\xfc\xdb\xbf'
tbsg43
(lp4389
sbassI37
(dp4390
g863
(lp4391
g8
(g17
g10
NtRp4392
(dp4393
g20
g8
(g21
g10
NtRp4394
(dp4395
g24
g1000
sg26
I1
sg27
F0.10000000000000001
sg28
S'A'
sg29
S'H'
sg30
g870
sg32
S'H'
sg34
F1.0079
sg35
g1001
sbsg37
g38
(g39
(I0
tS'b'
tRp4396
(I1
(I3
tg874
I00
S'\x82\xf3f\x1d\x84\xde\xd6?\xe5#<\x12\xe9B\x16@\x87\x9b*\x90\r\x08\xff?'
tbsg43
(lp4397
sbassI39
(dp4398
g863
(lp4399
g8
(g17
g10
NtRp4400
(dp4401
g20
g8
(g21
g10
NtRp4402
(dp4403
g24
g1164
sg26
I1
sg27
F0.40000000000000002
sg28
S'A'
sg29
S'H'
sg30
g870
sg32
g1165
sg34
F1.0079
sg35
g1166
sbsg37
g38
(g39
(I0
tS'b'
tRp4404
(I1
(I3
tg874
I00
S'\xa8R:\xfc\xe2A\x08@\x03\x0c\x1bU\x91Y\x1d@\xb9\xd2\xe0d{\x9b\xea\xbf'
tbsg43
(lp4405
sbassI40
(dp4406
g863
(lp4407
g8
(g17
g10
NtRp4408
(dp4409
g20
g8
(g21
g10
NtRp4410
(dp4411
g24
g1021
sg26
I1
sg27
F0.10000000000000001
sg28
S'A'
sg29
S'H'
sg30
g870
sg32
S'H'
sg34
F1.0079
sg35
g1022
sbsg37
g38
(g39
(I0
tS'b'
tRp4412
(I1
(I3
tg874
I00
S'\xa0\xd1\x8a\x92\x0b \x00\xc0\xb4\x05ZM\x16\xd5 @U\xf41\x91\x96y\xe9\xbf'
tbsg43
(lp4413
sbassI41
(dp4414
g863
(lp4415
g8
(g17
g10
NtRp4416
(dp4417
g20
g8
(g21
g10
NtRp4418
(dp4419
g24
g1031
sg26
I1
sg27
F0.10000000000000001
sg28
S'A'
sg29
S'H'
sg30
g870
sg32
S'H'
sg34
F1.0079
sg35
g1032
sbsg37
g38
(g39
(I0
tS'b'
tRp4420
(I1
(I3
tg874
I00
S'H.\xc3\x96p\xb7\x05\xc0R\xde\xb7\xe6\xb1\t @_`\xe3\xd6\n\x8f\xea?'
tbsg43
(lp4421
sbassI42
(dp4422
g863
(lp4423
g8
(g17
g10
NtRp4424
(dp4425
g20
g8
(g21
g10
NtRp4426
(dp4427
g24
g1041
sg26
I1
sg27
F0.40000000000000002
sg28
S'A'
sg29
S'H'
sg30
g870
sg32
g1042
sg34
F1.0079
sg35
g1043
sbsg37
g38
(g39
(I0
tS'b'
tRp4428
(I1
(I3
tg874
I00
S'\xcf\r\xf5\xc2\x89\xc5\xf8\xbfe\xc4p\x81\x0b\x11\x18@\xf9\\\x91+\x8b\xee\xe7\xbf'
tbsg43
(lp4429
sbassI47
(dp4430
g863
(lp4431
g8
(g17
g10
NtRp4432
(dp4433
g20
g8
(g21
g10
NtRp4434
(dp4435
g24
g1060
sg26
I1
sg27
F0.14999999999999999
sg28
S'A'
sg29
S'C'
sg30
g870
sg32
g1061
sg34
F12.0107
sg35
g1062
sbsg37
g38
(g39
(I0
tS'b'
tRp4436
(I1
(I3
tg1200
I00
S'/\x89\xd5)\x95\xbd\xeb\xbf\x7f`{O\x1cP\x07@g\xff\x0cx\x9d"\xee?'
tbsg43
(lp4437
sbassI48
(dp4438
g863
(lp4439
g8
(g17
g10
NtRp4440
(dp4441
g20
g8
(g21
g10
NtRp4442
(dp4443
g24
g1071
sg26
I1
sg27
F0.10000000000000001
sg28
S'A'
sg29
S'H'
sg30
g870
sg32
S'H'
sg34
F1.0079
sg35
g1072
sbsg37
g38
(g39
(I0
tS'b'
tRp4444
(I1
(I3
tg1200
I00
S'?\xe8\x0e\xa3\xd7\x91\xfa\xbf\x8b\xda0]\xe1\xd9\x06@5\x07K\xc2}t\xfb?'
tbsg43
(lp4445
sbassI49
(dp4446
g863
(lp4447
g8
(g17
g10
NtRp4448
(dp4449
g20
g8
(g21
g10
NtRp4450
(dp4451
g24
g1081
sg26
I1
sg27
F-0.65000000000000002
sg28
S'A'
sg29
S'O'
sg30
g870
sg32
g1082
sg34
F15.9994
sg35
g1083
sbsg37
g38
(g39
(I0
tS'b'
tRp4452
(I1
(I3
tg1200
I00
S'\xd7\xfd$=\xcbK\xf7\xbf\xb7\x03y\xf5hm\x0b@\xfd}\x93\xd7\x1b\x9b\xcd\xbf'
tbsg43
(lp4453
sbassI60
(dp4454
g863
(lp4455
g8
(g17
g10
NtRp4456
(dp4457
g20
g8
(g21
g10
NtRp4458
(dp4459
g24
g1164
sg26
I1
sg27
F0.40000000000000002
sg28
S'A'
sg29
S'H'
sg30
g870
sg32
g1165
sg34
F1.0079
sg35
g1166
sbsg37
g38
(g39
(I0
tS'b'
tRp4460
(I1
(I3
tg1200
I00
S'G\xb3,\xd6\xf6\xbc\xf1\xbfa\xa8\x9e\x83\x19N\x11@8-\xce\x9a\xb5\x16\xd3\xbf'
tbsg43
(lp4461
sbassI83
(dp4462
g863
(lp4463
g8
(g17
g10
NtRp4464
(dp4465
g20
g8
(g21
g10
NtRp4466
(dp4467
g24
g882
sg26
I1
sg27
F0.14999999999999999
sg28
S'A'
sg29
S'C'
sg30
g870
sg32
g883
sg34
F12.0107
sg35
g884
sbsg37
g38
(g39
(I0
tS'b'
tRp4468
(I1
(I3
tg1200
I00
S'@\xa9\x162\xbb\xaa\x00@\xe9\xd4\x1e\xddx2\x1a@aB\x98R\xec\x9c\xcb?'
tbsg43
(lp4469
sbassI84
(dp4470
g863
(lp4471
g8
(g17
g10
NtRp4472
(dp4473
g20
g8
(g21
g10
NtRp4474
(dp4475
g24
g893
sg26
I1
sg27
F0.10000000000000001
sg28
S'A'
sg29
S'H'
sg30
g870
sg32
S'H'
sg34
F1.0079
sg35
g894
sbsg37
g38
(g39
(I0
tS'b'
tRp4476
(I1
(I3
tg1200
I00
S'`\xbe\xa1{\xa1T\x03@\xa9\xa0\x18\t\x02\x19\x17@\xfc\xe3\xb3\xbe}T\xe0\xbf'
tbsg43
(lp4477
sbassI85
(dp4478
g863
(lp4479
g8
(g17
g10
NtRp4480
(dp4481
g20
g8
(g21
g10
NtRp4482
(dp4483
g24
g903
sg26
I1
sg27
F-0.65000000000000002
sg28
S'A'
sg29
S'O'
sg30
g870
sg32
g904
sg34
F15.9994
sg35
g905
sbsg37
g38
(g39
(I0
tS'b'
tRp4484
(I1
(I3
tg1200
I00
S'\x18\x90\xa3\xaf\xd7\x1b\x06@\xfd\xda\xe0@\xf9d\x19@\xe3\xca\x1d[\xd6\xf6\xf6?'
tbsg43
(lp4485
sbassI98
(dp4486
g863
(lp4487
g8
(g17
g10
NtRp4488
(dp4489
g20
g8
(g21
g10
NtRp4490
(dp4491
g24
g1010
sg26
I1
sg27
F0.40000000000000002
sg28
S'A'
sg29
S'H'
sg30
g870
sg32
g1011
sg34
F1.0079
sg35
g1012
sbsg37
g38
(g39
(I0
tS'b'
tRp4492
(I1
(I3
tg1200
I00
S'PM~\xe6\xb4\xae\x0b@#\xd3\t\x94\x85\x0b\x1c@+\xa0\xe5\x8da\xda\xf6?'
tbsg43
(lp4493
sbassI99
(dp4494
g863
(lp4495
g8
(g17
g10
NtRp4496
(dp4497
g20
g8
(g21
g10
NtRp4498
(dp4499
g24
S'H'
sg26
I1
sg27
F0.10000000000000001
sg28
S'A'
sg29
S'H'
sg30
g1264
sg32
S'H'
sg34
F1.0079400000000001
sg35
S'H'
sbsg37
g38
(g39
(I0
tS'b'
tRp4500
(I1
(I3
tg1200
I00
S'\x14\xa0\x89\xcc:\xb7\xa8?\xda\x95\x18\xe7n\xb3\xb1?\x9b\xb5\x1c\xc7\xfe\x82\xf4?'
tbsg43
(lp4501
sbasssg435
(dp4502
sg437
I00
sg438
(lp4503
(lp4504
I1
aI0
aI0
aI0
aa(lp4505
I0
aI1
aI0
aI0
aa(lp4506
I0
aI0
aI1
aI0
aa(lp4507
I0
aI0
aI0
aI1
aasg444
(dp4508
sg32
S'CelluloseB_s'
p4509
sg447
(dp4510
I1
(dp4511
I16
(dp4512
sI2
(dp4513
sI99
(dp4514
sI13
(dp4515
ssI2
(dp4516
I1
g4513
sI3
(dp4517
sI4
(dp4518
sI47
(dp4519
ssI3
(dp4520
I2
g4517
ssI4
(dp4521
I17
(dp4522
sI2
g4518
ssI8
(dp4523
I9
(dp4524
sI10
(dp4525
sI11
(dp4526
sI47
(dp4527
ssI9
(dp4528
I8
g4524
ssI10
(dp4529
I8
g4525
sI22
(dp4530
ssI11
(dp4531
I8
g4526
sI12
(dp4532
sI13
(dp4533
sI14
(dp4534
ssI12
(dp4535
I11
g4532
ssI13
(dp4536
I1
g4515
sI11
g4533
ssI14
(dp4537
I19
(dp4538
sI11
g4534
sI20
(dp4539
sI15
(dp4540
ssI15
(dp4541
I21
(dp4542
sI14
g4540
ssI16
(dp4543
I1
g4512
ssI17
(dp4544
I4
g4522
ssI19
(dp4545
I14
g4538
ssI20
(dp4546
I14
g4539
ssI21
(dp4547
I15
g4542
ssI22
(dp4548
I10
g4530
sI83
(dp4549
sI34
(dp4550
sI37
(dp4551
ssI26
(dp4552
I27
(dp4553
sI83
(dp4554
sI28
(dp4555
sI29
(dp4556
ssI27
(dp4557
I26
g4553
ssI28
(dp4558
I26
g4555
sI39
(dp4559
ssI29
(dp4560
I32
(dp4561
sI26
g4556
sI30
(dp4562
sI31
(dp4563
ssI30
(dp4564
I29
g4562
ssI31
(dp4565
I29
g4563
ssI32
(dp4566
I33
(dp4567
sI34
(dp4568
sI35
(dp4569
sI29
g4561
ssI33
(dp4570
I32
g4567
ssI34
(dp4571
I32
g4568
sI22
g4550
ssI35
(dp4572
I32
g4569
sI40
(dp4573
sI36
(dp4574
sI41
(dp4575
ssI36
(dp4576
I42
(dp4577
sI35
g4574
ssI37
(dp4578
I22
g4551
ssI39
(dp4579
I28
g4559
ssI40
(dp4580
I35
g4573
ssI41
(dp4581
I35
g4575
ssI42
(dp4582
I36
g4577
ssI47
(dp4583
I8
g4527
sI48
(dp4584
sI2
g4519
sI49
(dp4585
ssI48
(dp4586
I47
g4584
ssI49
(dp4587
I60
(dp4588
sI47
g4585
ssI60
(dp4589
I49
g4588
ssI83
(dp4590
I26
g4554
sI84
(dp4591
sI85
(dp4592
sI22
g4549
ssI84
(dp4593
I83
g4591
ssI85
(dp4594
I98
(dp4595
sI83
g4592
ssI98
(dp4596
I85
g4595
ssI99
(dp4597
I1
g4514
sssg536
g8
(g537
g10
NtRp4598
(dp4599
g540
(dp4600
sg542
(dp4601
sg544
(dp4602
sg546
g1378
sg548
(dp4603
g1382
(lp4604
F222.5
aF1.5
asg1386
(lp4605
F309
aF1.111
asg1389
(lp4606
F428
aF1.4199999999999999
asg1392
(lp4607
F428
aF1.4199999999999999
asg1396
(lp4608
F222.5
aF1.5
asg1400
(lp4609
F309
aF1.111
asg1404
(lp4610
F545
aF0.95999999999999996
asg1407
(lp4611
F428
aF1.4199999999999999
asg1409
(lp4612
F428
aF1.4199999999999999
asg1411
(lp4613
F428
aF1.4199999999999999
asg1413
(lp4614
F222.5
aF1.5
asg1416
(lp4615
F309
aF1.111
asg1418
(lp4616
F222.5
aF1.5
asg1420
(lp4617
F428
aF1.4199999999999999
asg1423
(lp4618
F309
aF1.111
as(g869
S'H'
tp4619
(lp4620
F309
aF1.111
asg1428
(lp4621
F545
aF0.95999999999999996
asg1434
(lp4622
F545
aF0.95999999999999996
asg1437
(lp4623
F309
aF1.111
asg1439
(lp4624
F222.5
aF1.5
asg1442
(lp4625
F309
aF1.111
asg1445
(lp4626
F309
aF1.111
asg1431
(lp4627
F428
aF1.4199999999999999
assg617
(dp4628
g1450
(lp4629
F78.195999999999998
aF108.89
asg1452
(lp4630
F91.787999999999997
aF111
asg1454
(lp4631
F119.044
aF106
asg1456
(lp4632
F79.373999999999995
aF110.09999999999999
asg1458
(lp4633
F78.195999999999998
aF108.89
asg1460
(lp4634
F78.195999999999998
aF108.89
asg1462
(lp4635
F119.044
aF106
asg1464
(lp4636
F113.39100000000001
aF110.09999999999999
asg1466
(lp4637
F91.787999999999997
aF111
asg1468
(lp4638
F79.373999999999995
aF110.09999999999999
asg1470
(lp4639
F113.39100000000001
aF110.09999999999999
asg1472
(lp4640
F107.179
aF105
asg1474
(lp4641
F107.179
aF105
asg1476
(lp4642
F79.373999999999995
aF110.09999999999999
asg1478
(lp4643
F79.373999999999995
aF110.09999999999999
asg1480
(lp4644
F91.787999999999997
aF111
asg1482
(lp4645
F78.299000000000007
aF109
asg1484
(lp4646
F107.179
aF105
asg1486
(lp4647
F76.739999999999995
aF107.23999999999999
asg1488
(lp4648
F214.084
aF111.55
asg1490
(lp4649
F131.929
aF107.5
asg1492
(lp4650
F131.929
aF107.5
asg1494
(lp4651
F113.39100000000001
aF110.09999999999999
asg1496
(lp4652
F79.373999999999995
aF110.09999999999999
asg1498
(lp4653
F79.373999999999995
aF110.09999999999999
asg1500
(lp4654
F76.739999999999995
aF107.23999999999999
asg1502
(lp4655
F119.044
aF106
asg1504
(lp4656
F79.373999999999995
aF110.09999999999999
asg1506
(lp4657
F76.739999999999995
aF107.23999999999999
asg1508
(lp4658
F113.39100000000001
aF110.09999999999999
asg1510
(lp4659
F79.373999999999995
aF110.09999999999999
asg1512
(lp4660
F107.179
aF105
asg1514
(lp4661
F78.195999999999998
aF108.89
asg1516
(lp4662
F76.739999999999995
aF107.23999999999999
asg1518
(lp4663
F113.39100000000001
aF110.09999999999999
asg1520
(lp4664
F91.787999999999997
aF111
asg1522
(lp4665
F107.179
aF105
asg1524
(lp4666
F107.179
aF105
asg1526
(lp4667
F79.373999999999995
aF110.09999999999999
asg1528
(lp4668
F79.373999999999995
aF110.09999999999999
asg1530
(lp4669
F79.373999999999995
aF110.09999999999999
assg701
(dp4670
g1403
(lp4671
F-0.19209999999999999
aF1.7649999999999999
aF-0.65000000000000002
asg1398
(lp4672
F-0.032000000000000001
aF2
aF0.050000000000000003
asg1430
(lp4673
F-0.19209999999999999
aF1.7649999999999999
aF-0.65000000000000002
asg1436
(lp4674
F-0.044999999999999998
aF1.3400000000000001
aF0.10000000000000001
asg1380
(lp4675
F-0.032000000000000001
aF2
aF0.14999999999999999
asg1415
(lp4676
F-0.044999999999999998
aF1.3400000000000001
aF0.10000000000000001
asg1394
(lp4677
F-0.032000000000000001
aF2
aF0.14999999999999999
asg1381
(lp4678
F-0.032000000000000001
aF2
aF0.10000000000000001
asg1444
(lp4679
F-0.044999999999999998
aF1.3400000000000001
aF0.10000000000000001
asg1385
(lp4680
F-0.044999999999999998
aF1.3400000000000001
aF0.10000000000000001
asg1391
(lp4681
F-0.19209999999999999
aF1.7649999999999999
aF-0.5
asS'H'
(lp4682
F-0.029999999999999999
aF1.3582000000000001
aF0
asg1422
(lp4683
F-0.044999999999999998
aF1.3400000000000001
aF0.10000000000000001
asg1402
(lp4684
F-0.045999999999999999
aF0.22450000000000001
aF0.40000000000000002
asg1388
(lp4685
F-0.19209999999999999
aF1.7649999999999999
aF-0.40000000000000002
asg1441
(lp4686
F-0.044999999999999998
aF1.3400000000000001
aF0.10000000000000001
asg1399
(lp4687
F-0.044999999999999998
aF1.3400000000000001
aF0.10000000000000001
asg1433
(lp4688
F-0.045999999999999999
aF0.22450000000000001
aF0.40000000000000002
asg1395
(lp4689
F-0.032000000000000001
aF2
aF0.14999999999999999
asg1427
(lp4690
F-0.045999999999999999
aF0.22450000000000001
aF0.40000000000000002
asg1406
(lp4691
F-0.19209999999999999
aF1.7649999999999999
aF-0.65000000000000002
asg1384
(lp4692
F-0.032000000000000001
aF2
aF0.34999999999999998
assg725
g1555
sg727
(dp4693
g1557
(lp4694
F0.14999999999999999
aI3
aF180
asg1559
(lp4695
F0.10000000000000001
aI3
aF180
asg1561
(lp4696
F0.14999999999999999
aI3
aF180
asg1563
(lp4697
F0.14999999999999999
aI3
aF180
asg1565
(lp4698
F0.14999999999999999
aI3
aF180
asg1567
(lp4699
F-1.8400000000000001
aI1
aF180
asg1569
(lp4700
F0.14999999999999999
aI3
aF180
asg1571
(lp4701
F0.14999999999999999
aI3
aF180
asg1573
(lp4702
F-1.1499999999999999
aI1
aF180
asg1575
(lp4703
F0.14999999999999999
aI3
aF180
asg1577
(lp4704
F0.14999999999999999
aI3
aF180
asg1579
(lp4705
F0.59999999999999998
aI1
aF180
asg1581
(lp4706
F0.14000000000000001
aI3
aF180
asg1583
(lp4707
F0.14999999999999999
aI3
aF180
asg1585
(lp4708
F0.14999999999999999
aI3
aF180
asg1587
(lp4709
F0.82999999999999996
aI1
aF180
asg1589
(lp4710
F-1.6299999999999999
aI1
aF180
asg1591
(lp4711
F0.14000000000000001
aI3
aF180
asg1593
(lp4712
F0.14000000000000001
aI3
aF180
asg1595
(lp4713
F0.14999999999999999
aI3
aF180
asg1597
(lp4714
F0.14999999999999999
aI3
aF180
asg1599
(lp4715
F0.14000000000000001
aI3
aF180
asg1601
(lp4716
F0.14999999999999999
aI3
aF180
asg1603
(lp4717
F0.14999999999999999
aI3
aF180
asg1605
(lp4718
F-1.8400000000000001
aI1
aF180
asg1607
(lp4719
F0.14999999999999999
aI3
aF180
asg1609
(lp4720
F0.14000000000000001
aI3
aF180
asg1611
(lp4721
F0.14999999999999999
aI3
aF180
asg1613
(lp4722
F0.14999999999999999
aI3
aF180
asg1615
(lp4723
F0.82999999999999996
aI1
aF180
asg1617
(lp4724
F-1.8400000000000001
aI1
aF180
asg1619
(lp4725
F0.14999999999999999
aI3
aF180
asg1621
(lp4726
F0.14000000000000001
aI3
aF180
asg1623
(lp4727
F0.14999999999999999
aI3
aF180
asg1625
(lp4728
F0.14000000000000001
aI3
aF180
asg1627
(lp4729
F0.14999999999999999
aI3
aF180
asg1629
(lp4730
F0.14999999999999999
aI3
aF180
asg1631
(lp4731
F0.59999999999999998
aF1
aF180
asg1633
(lp4732
F0.14000000000000001
aI3
aF180
asg1635
(lp4733
F0.14999999999999999
aI3
aF180
asg1637
(lp4734
F0.14999999999999999
aI3
aF180
asg1639
(lp4735
F-1.1499999999999999
aI1
aF180
asg1641
(lp4736
F0.82999999999999996
aI1
aF180
asg1643
(lp4737
F0.14999999999999999
aI3
aF180
asg1645
(lp4738
F-1.8400000000000001
aI1
aF180
asg1647
(lp4739
F0
aI0
aF0
asg1649
(lp4740
F0.14999999999999999
aI3
aF180
asg1651
(lp4741
F0.14000000000000001
aI3
aF180
asg1653
(lp4742
F0.14999999999999999
aI3
aF180
asg1655
(lp4743
F0.14999999999999999
aI3
aF180
asg1657
(lp4744
F0
aI0
aF0
asg1659
(lp4745
F0.14999999999999999
aI3
aF180
asg1661
(lp4746
F0.59999999999999998
aI1
aF180
asg1663
(lp4747
F0.14999999999999999
aI3
aF180
asg1665
(lp4748
F0.59999999999999998
aI1
aF180
asg1667
(lp4749
F0.59999999999999998
aI1
aF180
asg1669
(lp4750
F0.14999999999999999
aI3
aF180
asg1671
(lp4751
F0.14999999999999999
aI3
aF180
asg1673
(lp4752
F0.14999999999999999
aI3
aF180
asg1675
(lp4753
F0.14999999999999999
aI3
aF180
asg1677
(lp4754
F0.14000000000000001
aI3
aF180
asg1679
(lp4755
F0.14999999999999999
aI3
aF180
asg1681
(lp4756
F0.14999999999999999
aI3
aF180
assbsg855
g4510
sbassS'CelluloseB_e_1'
p4757
(dp4758
g6
(lp4759
g8
(g9
g10
NtRp4760
(dp4761
g2
(dp4762
I1
(dp4763
g863
(lp4764
g8
(g17
g10
NtRp4765
(dp4766
g20
g8
(g21
g10
NtRp4767
(dp4768
g24
g869
sg26
I1
sg27
F0.34999999999999998
sg28
S'A'
sg29
S'C'
sg30
g870
sg32
g871
sg34
F12.0107
sg35
g872
sbsg37
g38
(g39
(I0
tS'b'
tRp4769
(I1
(I3
tg874
I00
S'+Y\xff\xe0\xc2(\xcf?v/QL:8\xd3?\x1c\x0bf\xe7W\xca\x94\xbf'
tbsg43
(lp4770
sbassI2
(dp4771
g863
(lp4772
g8
(g17
g10
NtRp4773
(dp4774
g20
g8
(g21
g10
NtRp4775
(dp4776
g24
g882
sg26
I1
sg27
F0.14999999999999999
sg28
S'A'
sg29
S'C'
sg30
g870
sg32
g883
sg34
F12.0107
sg35
g884
sbsg37
g38
(g39
(I0
tS'b'
tRp4777
(I1
(I3
tg874
I00
S'5\xed-\x83r\xc2\xee\xbf\xde\xd5\xd8\xd4\x80N\xf3?BA\x15\xe5?%\xa9?'
tbsg43
(lp4778
sbassI3
(dp4779
g863
(lp4780
g8
(g17
g10
NtRp4781
(dp4782
g20
g8
(g21
g10
NtRp4783
(dp4784
g24
g893
sg26
I1
sg27
F0.10000000000000001
sg28
S'A'
sg29
S'H'
sg30
g870
sg32
S'H'
sg34
F1.0079
sg35
g894
sbsg37
g38
(g39
(I0
tS'b'
tRp4785
(I1
(I3
tg874
I00
S'\xc2"\xb3\x80\x01\x11\xf8\xbf\x1e\x06"ey\x8a\xf2?\xe3\xf1\xf6\xf0\xe2y\xed\xbf'
tbsg43
(lp4786
sbassI4
(dp4787
g863
(lp4788
g8
(g17
g10
NtRp4789
(dp4790
g20
g8
(g21
g10
NtRp4791
(dp4792
g24
g903
sg26
I1
sg27
F-0.65000000000000002
sg28
S'A'
sg29
S'O'
sg30
g870
sg32
g904
sg34
F15.9994
sg35
g905
sbsg37
g38
(g39
(I0
tS'b'
tRp4793
(I1
(I3
tg874
I00
S'\xac\x99{\xf5\x00c\xfc\xbf\xfb\xccJ\xd9\xe5Z\xe4?\x9b\x7fK\x01\x07\xd1\xf0?'
tbsg43
(lp4794
sbassI8
(dp4795
g863
(lp4796
g8
(g17
g10
NtRp4797
(dp4798
g20
g8
(g21
g10
NtRp4799
(dp4800
g24
g914
sg26
I1
sg27
F0.14999999999999999
sg28
S'A'
sg29
S'C'
sg30
g870
sg32
g915
sg34
F12.0107
sg35
g916
sbsg37
g38
(g39
(I0
tS'b'
tRp4801
(I1
(I3
tg874
I00
S'\xf3\xa6\x84\xe57\xc4\xe2?\xbb2w\x98\x1dP\t@\xbb\xd2\xdf\x92\xb4\xe1\xe7?'
tbsg43
(lp4802
sbassI9
(dp4803
g863
(lp4804
g8
(g17
g10
NtRp4805
(dp4806
g20
g8
(g21
g10
NtRp4807
(dp4808
g24
g925
sg26
I1
sg27
F0.10000000000000001
sg28
S'A'
sg29
S'H'
sg30
g870
sg32
S'H'
sg34
F1.0079
sg35
g926
sbsg37
g38
(g39
(I0
tS'b'
tRp4809
(I1
(I3
tg874
I00
S'\x17\x00\xae\xb5[u\xe7?\xcb\x86\xbb\xc0\x0bA\x0b@._~xY\x1d\xfd?'
tbsg43
(lp4810
sbassI10
(dp4811
g863
(lp4812
g8
(g17
g10
NtRp4813
(dp4814
g20
g8
(g21
g10
NtRp4815
(dp4816
g24
g935
sg26
I1
sg27
F-0.5
sg28
S'A'
sg29
S'O'
sg30
g870
sg32
g936
sg34
F15.9994
sg35
g937
sbsg37
g38
(g39
(I0
tS'b'
tRp4817
(I1
(I3
tg874
I00
S'i\xfd\x83\x12\xaa7\xe6?\xcbH\xd7i\xf3\x7f\x11@\x84o\xdf\n|\x02\xae\xbf'
tbsg43
(lp4818
sbassI11
(dp4819
g863
(lp4820
g8
(g17
g10
NtRp4821
(dp4822
g20
g8
(g21
g10
NtRp4823
(dp4824
g24
g946
sg26
I1
sg27
F0.10000000000000001
sg28
S'A'
sg29
S'C'
sg30
g870
sg32
g947
sg34
F12.0107
sg35
g948
sbsg37
g38
(g39
(I0
tS'b'
tRp4825
(I1
(I3
tg874
I00
S'd\x82\x8e;\xc6\xde\xf9?\xcbA\x97j\xf6\x16\x01@\xbev\xb2R\xae\x88\xd1?'
tbsg43
(lp4826
sbassI12
(dp4827
g863
(lp4828
g8
(g17
g10
NtRp4829
(dp4830
g20
g8
(g21
g10
NtRp4831
(dp4832
g24
g957
sg26
I1
sg27
F0.10000000000000001
sg28
S'A'
sg29
S'H'
sg30
g870
sg32
S'H'
sg34
F1.0079
sg35
g958
sbsg37
g38
(g39
(I0
tS'b'
tRp4833
(I1
(I3
tg874
I00
S'\x96>yo$Q\xfa?[E>\xa6-\x7f\x00@\xd1\x9e\xbbt\xaf\xb3\xea\xbf'
tbsg43
(lp4834
sbassI13
(dp4835
g863
(lp4836
g8
(g17
g10
NtRp4837
(dp4838
g20
g8
(g21
g10
NtRp4839
(dp4840
g24
g967
sg26
I1
sg27
F-0.40000000000000002
sg28
S'A'
sg29
S'O'
sg30
g870
sg32
g968
sg34
F15.9994
sg35
g969
sbsg37
g38
(g39
(I0
tS'b'
tRp4841
(I1
(I3
tg874
I00
S'c\xb6;\xd3\xd4\x92\xf3?\xbbG?\xff\\\xfe\xeb?%\xe6\xc0\nI\xb3\xea?'
tbsg43
(lp4842
sbassI14
(dp4843
g863
(lp4844
g8
(g17
g10
NtRp4845
(dp4846
g20
g8
(g21
g10
NtRp4847
(dp4848
g24
g978
sg26
I1
sg27
F0.050000000000000003
sg28
S'A'
sg29
S'C'
sg30
g870
sg32
g979
sg34
F12.0107
sg35
g980
sbsg37
g38
(g39
(I0
tS'b'
tRp4849
(I1
(I3
tg874
I00
S'\xdc\xe5j=\xed\xe2\x07@\xcb\x19\xb0\xa1\xefI\x02@m\x86\x94\xe2\xcd\xb6\xea?'
tbsg43
(lp4850
sbassI15
(dp4851
g863
(lp4852
g8
(g17
g10
NtRp4853
(dp4854
g20
g8
(g21
g10
NtRp4855
(dp4856
g24
g989
sg26
I1
sg27
F-0.65000000000000002
sg28
S'A'
sg29
S'O'
sg30
g870
sg32
g990
sg34
F15.9994
sg35
g991
sbsg37
g38
(g39
(I0
tS'b'
tRp4857
(I1
(I3
tg874
I00
S"\x141\x8b\x87\x94\xdc\n@.M\x04\x85\x85\x0c\xf0?\xe4u'\x84\xa5\x17\xf5?"
tbsg43
(lp4858
sbassI16
(dp4859
g863
(lp4860
g8
(g17
g10
NtRp4861
(dp4862
g20
g8
(g21
g10
NtRp4863
(dp4864
g24
g1000
sg26
I1
sg27
F0.10000000000000001
sg28
S'A'
sg29
S'H'
sg30
g870
sg32
S'H'
sg34
F1.0079
sg35
g1001
sbsg37
g38
(g39
(I0
tS'b'
tRp4865
(I1
(I3
tg874
I00
S'\x8d\xc1s\xa7\x07<\xe4?\xed1|\xa5\x9b\x8a\xc4?/[vIn\xef\xf0\xbf'
tbsg43
(lp4866
sbassI17
(dp4867
g863
(lp4868
g8
(g17
g10
NtRp4869
(dp4870
g20
g8
(g21
g10
NtRp4871
(dp4872
g24
g1010
sg26
I1
sg27
F0.40000000000000002
sg28
S'A'
sg29
S'H'
sg30
g870
sg32
g1011
sg34
F1.0079
sg35
g1012
sbsg37
g38
(g39
(I0
tS'b'
tRp4873
(I1
(I3
tg874
I00
S'&\x98u\xd5\xbf\x91\xf6\xbf\x13\xe6\x9fS\xe5c\xcf\xbfe\x14\xb3\x03\xca\xd0\xf2?'
tbsg43
(lp4874
sbassI19
(dp4875
g863
(lp4876
g8
(g17
g10
NtRp4877
(dp4878
g20
g8
(g21
g10
NtRp4879
(dp4880
g24
g1021
sg26
I1
sg27
F0.10000000000000001
sg28
S'A'
sg29
S'H'
sg30
g870
sg32
S'H'
sg34
F1.0079
sg35
g1022
sbsg37
g38
(g39
(I0
tS'b'
tRp4881
(I1
(I3
tg874
I00
S't\xa0\x14\x00\xde\n\x08@\xeb\x91G\xcb0\x17\x08@\x8a:M\x8fj\xd5\xfa?'
tbsg43
(lp4882
sbassI20
(dp4883
g863
(lp4884
g8
(g17
g10
NtRp4885
(dp4886
g20
g8
(g21
g10
NtRp4887
(dp4888
g24
g1031
sg26
I1
sg27
F0.10000000000000001
sg28
S'A'
sg29
S'H'
sg30
g870
sg32
S'H'
sg34
F1.0079
sg35
g1032
sbsg37
g38
(g39
(I0
tS'b'
tRp4889
(I1
(I3
tg874
I00
S'\x13\xfdL\x04C\xa2\r@\x8b\xf4\xbe0\x9f\xe9\x04@\x96\x03Rh;#\xaa?'
tbsg43
(lp4890
sbassI21
(dp4891
g863
(lp4892
g8
(g17
g10
NtRp4893
(dp4894
g20
g8
(g21
g10
NtRp4895
(dp4896
g24
g1041
sg26
I1
sg27
F0.40000000000000002
sg28
S'A'
sg29
S'H'
sg30
g870
sg32
g1042
sg34
F1.0079
sg35
g1043
sbsg37
g38
(g39
(I0
tS'b'
tRp4897
(I1
(I3
tg874
I00
S'\xc8U\x04O\x97M\x04@\xfb\x0f\x04c\xba\x93\xe3?\xe1\xee|\xdc\xe4\x0f\xfa?'
tbsg43
(lp4898
sbassI22
(dp4899
g863
(lp4900
g8
(g17
g10
NtRp4901
(dp4902
g20
g8
(g21
g10
NtRp4903
(dp4904
g24
g869
sg26
I1
sg27
F0.34999999999999998
sg28
S'A'
sg29
S'C'
sg30
g870
sg32
g871
sg34
F12.0107
sg35
g872
sbsg37
g38
(g39
(I0
tS'b'
tRp4905
(I1
(I3
tg874
I00
S'\xed\x04d\xab\xae\x8e\xe5?\xbf\x1e"M\x94w\x16@\x7f\x04FWF?\xeb?'
tbsg43
(lp4906
sbassI26
(dp4907
g863
(lp4908
g8
(g17
g10
NtRp4909
(dp4910
g20
g8
(g21
g10
NtRp4911
(dp4912
g24
g1060
sg26
I1
sg27
F0.14999999999999999
sg28
S'A'
sg29
S'C'
sg30
g870
sg32
g1061
sg34
F12.0107
sg35
g1062
sbsg37
g38
(g39
(I0
tS'b'
tRp4913
(I1
(I3
tg874
I00
S'@\x95\xeed(\x8f\xfb?\x1f\xd7D\x94\xec\xe2\x1f@\xe8-k\xd6c\xf4\xd6?'
tbsg43
(lp4914
sbassI27
(dp4915
g863
(lp4916
g8
(g17
g10
NtRp4917
(dp4918
g20
g8
(g21
g10
NtRp4919
(dp4920
g24
g1071
sg26
I1
sg27
F0.10000000000000001
sg28
S'A'
sg29
S'H'
sg30
g870
sg32
S'H'
sg34
F1.0079
sg35
g1072
sbsg37
g38
(g39
(I0
tS'b'
tRp4921
(I1
(I3
tg874
I00
S'\xbe\x82C}\xe0\x81\x01@\x91\xa4\xd0z\xc4;!@\xe1R\xdf\xfbG \xf2?'
tbsg43
(lp4922
sbassI28
(dp4923
g863
(lp4924
g8
(g17
g10
NtRp4925
(dp4926
g20
g8
(g21
g10
NtRp4927
(dp4928
g24
g1081
sg26
I1
sg27
F-0.65000000000000002
sg28
S'A'
sg29
S'O'
sg30
g870
sg32
g1082
sg34
F15.9994
sg35
g1083
sbsg37
g38
(g39
(I0
tS'b'
tRp4929
(I1
(I3
tg874
I00
S"1\xa0'%\xfa\xf5\x03@\x7f\xe83.B/ @\x19H\xbc\x822\x0f\xea\xbf"
tbsg43
(lp4930
sbassI29
(dp4931
g863
(lp4932
g8
(g17
g10
NtRp4933
(dp4934
g20
g8
(g21
g10
NtRp4935
(dp4936
g24
g914
sg26
I1
sg27
F0.14999999999999999
sg28
S'A'
sg29
S'C'
sg30
g870
sg32
g915
sg34
F12.0107
sg35
g916
sbsg37
g38
(g39
(I0
tS'b'
tRp4937
(I1
(I3
tg874
I00
S'\xach>\xfcN)\xd5?\x91RL\xba\x0f\xf6 @\x81\x0bX)\xf8\xb9\xb5?'
tbsg43
(lp4938
sbassI30
(dp4939
g863
(lp4940
g8
(g17
g10
NtRp4941
(dp4942
g20
g8
(g21
g10
NtRp4943
(dp4944
g24
g925
sg26
I1
sg27
F0.10000000000000001
sg28
S'A'
sg29
S'H'
sg30
g870
sg32
S'H'
sg34
F1.0079
sg35
g926
sbsg37
g38
(g39
(I0
tS'b'
tRp4945
(I1
(I3
tg874
I00
S'cl\xd7\xb7\x0e\x8e\xc7?\x91g]DKr!@O\xea\xf1X\xbf\xa1\xef\xbf'
tbsg43
(lp4946
sbassI31
(dp4947
g863
(lp4948
g8
(g17
g10
NtRp4949
(dp4950
g20
g8
(g21
g10
NtRp4951
(dp4952
g24
g935
sg26
I1
sg27
F-0.59999999999999998
sg28
S'A'
sg29
S'O'
sg30
g870
sg32
g936
sg34
F15.9994
sg35
g937
sbsg37
g38
(g39
(I0
tS'b'
tRp4953
(I1
(I3
tg874
I00
S'/w\x7fD\xd5\x84\xcc?A*\x1a\t\x02b#@C\xcb\xb8X\x1by\xec?'
tbsg43
(lp4954
sbassI32
(dp4955
g863
(lp4956
g8
(g17
g10
NtRp4957
(dp4958
g20
g8
(g21
g10
NtRp4959
(dp4960
g24
g946
sg26
I1
sg27
F0.10000000000000001
sg28
S'A'
sg29
S'C'
sg30
g870
sg32
g947
sg34
F12.0107
sg35
g948
sbsg37
g38
(g39
(I0
tS'b'
tRp4961
(I1
(I3
tg874
I00
S'\x8d)y\x13\xadd\xe6\xbf\x9f\xac\xa8\xdd\x8b\xcf\x1d@\xd2\x98\xb1n\x9c\xd4\xe1?'
tbsg43
(lp4962
sbassI33
(dp4963
g863
(lp4964
g8
(g17
g10
NtRp4965
(dp4966
g20
g8
(g21
g10
NtRp4967
(dp4968
g24
g957
sg26
I1
sg27
F0.10000000000000001
sg28
S'A'
sg29
S'H'
sg30
g870
sg32
S'H'
sg34
F1.0079
sg35
g958
sbsg37
g38
(g39
(I0
tS'b'
tRp4969
(I1
(I3
tg874
I00
S'\xe7\xa1N{iI\xe7\xbf_.|{\xa7\x83\x1d@v9c\x86Q\xa6\xfa?'
tbsg43
(lp4970
sbassI34
(dp4971
g863
(lp4972
g8
(g17
g10
NtRp4973
(dp4974
g20
g8
(g21
g10
NtRp4975
(dp4976
g24
g967
sg26
I1
sg27
F-0.40000000000000002
sg28
S'A'
sg29
S'O'
sg30
g870
sg32
g968
sg34
F15.9994
sg35
g969
sbsg37
g38
(g39
(I0
tS'b'
tRp4977
(I1
(I3
tg874
I00
S'6#\xa7\x85\x94\x99\xd3\xbf\xbf\xf4DH\xdc\xc3\x18@`\xf8\x11\xb6rUj\xbf'
tbsg43
(lp4978
sbassI35
(dp4979
g863
(lp4980
g8
(g17
g10
NtRp4981
(dp4982
g20
g8
(g21
g10
NtRp4983
(dp4984
g24
g978
sg26
I1
sg27
F0.050000000000000003
sg28
S'A'
sg29
S'C'
sg30
g870
sg32
g979
sg34
F12.0107
sg35
g980
sbsg37
g38
(g39
(I0
tS'b'
tRp4985
(I1
(I3
tg874
I00
S'\x01\xef\x81d\xb5\x8c\x00\xc0\x9f\x185y\x08i\x1e@`Z\xb2\x89J\xdam\xbf'
tbsg43
(lp4986
sbassI36
(dp4987
g863
(lp4988
g8
(g17
g10
NtRp4989
(dp4990
g20
g8
(g21
g10
NtRp4991
(dp4992
g24
g989
sg26
I1
sg27
F-0.65000000000000002
sg28
S'A'
sg29
S'O'
sg30
g870
sg32
g990
sg34
F15.9994
sg35
g991
sbsg37
g38
(g39
(I0
tS'b'
tRp4993
(I1
(I3
tg874
I00
S'@:\xa2\xae\\\x86\x03\xc0\xff\x1e\x9e\t2G\x19@./\x88\xe0\xae,\xdf\xbf'
tbsg43
(lp4994
sbassI37
(dp4995
g863
(lp4996
g8
(g17
g10
NtRp4997
(dp4998
g20
g8
(g21
g10
NtRp4999
(dp5000
g24
g1000
sg26
I1
sg27
F0.10000000000000001
sg28
S'A'
sg29
S'H'
sg30
g870
sg32
S'H'
sg34
F1.0079
sg35
g1001
sbsg37
g38
(g39
(I0
tS'b'
tRp5001
(I1
(I3
tg874
I00
S'F3`x\xaf9\xd2??\xed\x88\x85e\xe8\x15@8\xc5{\x15\xe8;\xfe?'
tbsg43
(lp5002
sbassI39
(dp5003
g863
(lp5004
g8
(g17
g10
NtRp5005
(dp5006
g20
g8
(g21
g10
NtRp5007
(dp5008
g24
g1164
sg26
I1
sg27
F0.40000000000000002
sg28
S'A'
sg29
S'H'
sg30
g870
sg32
g1165
sg34
F1.0079
sg35
g1166
sbsg37
g38
(g39
(I0
tS'b'
tRp5009
(I1
(I3
tg874
I00
S'\xa6z\x99gH\xad\x07@_\xd5g\xc8\r\xff\x1c@W\x7f>Z\xc63\xec\xbf'
tbsg43
(lp5010
sbassI40
(dp5011
g863
(lp5012
g8
(g17
g10
NtRp5013
(dp5014
g20
g8
(g21
g10
NtRp5015
(dp5016
g24
g1021
sg26
I1
sg27
F0.10000000000000001
sg28
S'A'
sg29
S'H'
sg30
g870
sg32
S'H'
sg34
F1.0079
sg35
g1022
sbsg37
g38
(g39
(I0
tS'b'
tRp5017
(I1
(I3
tg874
I00
S"\xa3\xa9+'\xa6\xb4\x00\xc0aj\x00\x87\xd4\xa7 @\xf3\xa0\x8f\x86\xe1\x11\xeb\xbf"
tbsg43
(lp5018
sbassI41
(dp5019
g863
(lp5020
g8
(g17
g10
NtRp5021
(dp5022
g20
g8
(g21
g10
NtRp5023
(dp5024
g24
g1031
sg26
I1
sg27
F0.10000000000000001
sg28
S'A'
sg29
S'H'
sg30
g870
sg32
S'H'
sg34
F1.0079
sg35
g1032
sbsg37
g38
(g39
(I0
tS'b'
tRp5025
(I1
(I3
tg874
I00
S'K\x06d+\x0bL\x06\xc0\xff\x85\xbc@\xe0\xb8\x1f@\xc1\xb3\x85\xe1\xbf\xf6\xe8?'
tbsg43
(lp5026
sbassI42
(dp5027
g863
(lp5028
g8
(g17
g10
NtRp5029
(dp5030
g20
g8
(g21
g10
NtRp5031
(dp5032
g24
g1041
sg26
I1
sg27
F0.40000000000000002
sg28
S'A'
sg29
S'H'
sg30
g870
sg32
g1042
sg34
F1.0079
sg35
g1043
sbsg37
g38
(g39
(I0
tS'b'
tRp5033
(I1
(I3
tg874
I00
S'\xd8\xbd6\xec\xbe\xee\xf9\xbf\xbf\x8d\xbd\xf4\x87\xb6\x17@\x97\t\xef \xd6\x86\xe9\xbf'
tbsg43
(lp5034
sbassI47
(dp5035
g863
(lp5036
g8
(g17
g10
NtRp5037
(dp5038
g20
g8
(g21
g10
NtRp5039
(dp5040
g24
g1060
sg26
I1
sg27
F0.14999999999999999
sg28
S'A'
sg29
S'C'
sg30
g870
sg32
g1061
sg34
F12.0107
sg35
g1062
sbsg37
g38
(g39
(I0
tS'b'
tRp5041
(I1
(I3
tg1200
I00
S'?\xe9X|\xff\x0f\xee\xbf3\xf3\x146\x15\x9b\x06@\xc9R\xaf\x82R\x8a\xec?'
tbsg43
(lp5042
sbassI48
(dp5043
g863
(lp5044
g8
(g17
g10
NtRp5045
(dp5046
g20
g8
(g21
g10
NtRp5047
(dp5048
g24
g1071
sg26
I1
sg27
F0.10000000000000001
sg28
S'A'
sg29
S'H'
sg30
g870
sg32
S'H'
sg34
F1.0079
sg35
g1072
sbsg37
g38
(g39
(I0
tS'b'
tRp5049
(I1
(I3
tg1200
I00
S'G\x98P\xcc\x0c\xbb\xfb\xbf?m\xcaC\xda$\x06@\xe60\x9cGX\xa8\xfa?'
tbsg43
(lp5050
sbassI49
(dp5051
g863
(lp5052
g8
(g17
g10
NtRp5053
(dp5054
g20
g8
(g21
g10
NtRp5055
(dp5056
g24
g1081
sg26
I1
sg27
F-0.65000000000000002
sg28
S'A'
sg29
S'O'
sg30
g870
sg32
g1082
sg34
F15.9994
sg35
g1083
sbsg37
g38
(g39
(I0
tS'b'
tRp5057
(I1
(I3
tg1200
I00
S'\xdf\xadff\x00u\xf8\xbfk\x96\x12\xdca\xb8\n@:\x18\x85\xd6#\xfe\xd1\xbf'
tbsg43
(lp5058
sbassI60
(dp5059
g863
(lp5060
g8
(g17
g10
NtRp5061
(dp5062
g20
g8
(g21
g10
NtRp5063
(dp5064
g24
g1164
sg26
I1
sg27
F0.40000000000000002
sg28
S'A'
sg29
S'H'
sg30
g870
sg32
g1165
sg34
F1.0079
sg35
g1166
sbsg37
g38
(g39
(I0
tS'b'
tRp5065
(I1
(I3
tg1200
I00
S'Ocn\xff+\xe6\xf2\xbf\xbbq\xeb\xf6\x95\xf3\x10@t\x86\x89\x85KG\xd6\xbf'
tbsg43
(lp5066
sbassI83
(dp5067
g863
(lp5068
g8
(g17
g10
NtRp5069
(dp5070
g20
g8
(g21
g10
NtRp5071
(dp5072
g24
g882
sg26
I1
sg27
F0.14999999999999999
sg28
S'A'
sg29
S'C'
sg30
g870
sg32
g883
sg34
F12.0107
sg35
g884
sbsg37
g38
(g39
(I0
tS'b'
tRp5073
(I1
(I3
tg1200
I00
S':\xd1u\x9d \x16\x00@C\x9ekP\xf5\xd7\x19@\xe9\x8f!}\xc0;\xc5?'
tbsg43
(lp5074
sbassI84
(dp5075
g863
(lp5076
g8
(g17
g10
NtRp5077
(dp5078
g20
g8
(g21
g10
NtRp5079
(dp5080
g24
g893
sg26
I1
sg27
F0.10000000000000001
sg28
S'A'
sg29
S'H'
sg30
g870
sg32
S'H'
sg34
F1.0079
sg35
g894
sbsg37
g38
(g39
(I0
tS'b'
tRp5081
(I1
(I3
tg1200
I00
S'Z\xe6\x00\xe7\x06\xc0\x02@\x03je|~\xbe\x16@\x9a\x90\x11\xb4\xc8\xec\xe1\xbf'
tbsg43
(lp5082
sbassI85
(dp5083
g863
(lp5084
g8
(g17
g10
NtRp5085
(dp5086
g20
g8
(g21
g10
NtRp5087
(dp5088
g24
g903
sg26
I1
sg27
F-0.65000000000000002
sg28
S'A'
sg29
S'O'
sg30
g870
sg32
g904
sg34
F15.9994
sg35
g905
sbsg37
g38
(g39
(I0
tS'b'
tRp5089
(I1
(I3
tg1200
I00
S'\x12\xb8\x02\x1b=\x87\x05@W\xa4-\xb4u\n\x19@\x94\xf4n\xe0\xb0*\xf6?'
tbsg43
(lp5090
sbassI98
(dp5091
g863
(lp5092
g8
(g17
g10
NtRp5093
(dp5094
g20
g8
(g21
g10
NtRp5095
(dp5096
g24
g1010
sg26
I1
sg27
F0.40000000000000002
sg28
S'A'
sg29
S'H'
sg30
g870
sg32
g1011
sg34
F1.0079
sg35
g1012
sbsg37
g38
(g39
(I0
tS'b'
tRp5097
(I1
(I3
tg1200
I00
S'Ju\xddQ\x1a\x1a\x0b@}\x9cV\x07\x02\xb1\x1b@\xdc\xc96\x13<\x0e\xf6?'
tbsg43
(lp5098
sbassI99
(dp5099
g863
(lp5100
g8
(g17
g10
NtRp5101
(dp5102
g20
g8
(g21
g10
NtRp5103
(dp5104
g24
S'H'
sg26
I1
sg27
F0.10000000000000001
sg28
S'A'
sg29
S'H'
sg30
g1264
sg32
S'H'
sg34
F1.0079400000000001
sg35
S'H'
sbsg37
g38
(g39
(I0
tS'b'
tRp5105
(I1
(I3
tg1200
I00
S'\x14\xa0\x89\xcc:\xb7\xa8?,1\xce\xddf#&@\x86&\x98>\xb9\xfc\xb4?'
tbsg43
(lp5106
sbasssg435
(dp5107
sg437
I00
sg438
(lp5108
(lp5109
I1
aI0
aI0
aI0
aa(lp5110
I0
aI1
aI0
aI0
aa(lp5111
I0
aI0
aI1
aI0
aa(lp5112
I0
aI0
aI0
aI1
aasg444
(dp5113
sg32
S'CelluloseB_e'
p5114
sg447
(dp5115
I1
(dp5116
I16
(dp5117
sI2
(dp5118
sI13
(dp5119
ssI2
(dp5120
I1
g5118
sI3
(dp5121
sI4
(dp5122
sI47
(dp5123
ssI3
(dp5124
I2
g5121
ssI4
(dp5125
I17
(dp5126
sI2
g5122
ssI8
(dp5127
I9
(dp5128
sI10
(dp5129
sI11
(dp5130
sI47
(dp5131
ssI9
(dp5132
I8
g5128
ssI10
(dp5133
I8
g5129
sI22
(dp5134
ssI11
(dp5135
I8
g5130
sI12
(dp5136
sI13
(dp5137
sI14
(dp5138
ssI12
(dp5139
I11
g5136
ssI13
(dp5140
I1
g5119
sI11
g5137
ssI14
(dp5141
I19
(dp5142
sI11
g5138
sI20
(dp5143
sI15
(dp5144
ssI15
(dp5145
I21
(dp5146
sI14
g5144
ssI16
(dp5147
I1
g5117
ssI17
(dp5148
I4
g5126
ssI19
(dp5149
I14
g5142
ssI20
(dp5150
I14
g5143
ssI21
(dp5151
I15
g5146
ssI22
(dp5152
I10
g5134
sI83
(dp5153
sI34
(dp5154
sI37
(dp5155
ssI26
(dp5156
I27
(dp5157
sI83
(dp5158
sI28
(dp5159
sI29
(dp5160
ssI27
(dp5161
I26
g5157
ssI28
(dp5162
I26
g5159
sI39
(dp5163
ssI29
(dp5164
I32
(dp5165
sI26
g5160
sI30
(dp5166
sI31
(dp5167
ssI30
(dp5168
I29
g5166
ssI31
(dp5169
I99
(dp5170
sI29
g5167
ssI32
(dp5171
I33
(dp5172
sI34
(dp5173
sI35
(dp5174
sI29
g5165
ssI33
(dp5175
I32
g5172
ssI34
(dp5176
I32
g5173
sI22
g5154
ssI35
(dp5177
I32
g5174
sI40
(dp5178
sI36
(dp5179
sI41
(dp5180
ssI36
(dp5181
I42
(dp5182
sI35
g5179
ssI37
(dp5183
I22
g5155
ssI39
(dp5184
I28
g5163
ssI40
(dp5185
I35
g5178
ssI41
(dp5186
I35
g5180
ssI42
(dp5187
I36
g5182
ssI47
(dp5188
I8
g5131
sI48
(dp5189
sI2
g5123
sI49
(dp5190
ssI48
(dp5191
I47
g5189
ssI49
(dp5192
I60
(dp5193
sI47
g5190
ssI60
(dp5194
I49
g5193
ssI83
(dp5195
I26
g5158
sI84
(dp5196
sI85
(dp5197
sI22
g5153
ssI84
(dp5198
I83
g5196
ssI85
(dp5199
I98
(dp5200
sI83
g5197
ssI98
(dp5201
I85
g5200
ssI99
(dp5202
I31
g5170
sssg536
g8
(g537
g10
NtRp5203
(dp5204
g540
(dp5205
sg542
(dp5206
sg544
(dp5207
sg546
g1378
sg548
(dp5208
g1382
(lp5209
F222.5
aF1.5
asg1386
(lp5210
F309
aF1.111
asg1389
(lp5211
F428
aF1.4199999999999999
asg1392
(lp5212
F428
aF1.4199999999999999
asg1396
(lp5213
F222.5
aF1.5
asg1400
(lp5214
F309
aF1.111
asg1404
(lp5215
F545
aF0.95999999999999996
asg1407
(lp5216
F428
aF1.4199999999999999
asg1409
(lp5217
F428
aF1.4199999999999999
asg1442
(lp5218
F309
aF1.111
asg1413
(lp5219
F222.5
aF1.5
asg1416
(lp5220
F309
aF1.111
asg1418
(lp5221
F222.5
aF1.5
asg1420
(lp5222
F428
aF1.4199999999999999
asg1423
(lp5223
F309
aF1.111
asg1428
(lp5224
F545
aF0.95999999999999996
asg1431
(lp5225
F428
aF1.4199999999999999
asg1434
(lp5226
F545
aF0.95999999999999996
asg1437
(lp5227
F309
aF1.111
asg1439
(lp5228
F222.5
aF1.5
asg1411
(lp5229
F428
aF1.4199999999999999
asg1445
(lp5230
F309
aF1.111
as(S'H'
g935
tp5231
(lp5232
F545
aF0.95999999999999996
assg617
(dp5233
g1450
(lp5234
F78.195999999999998
aF108.89
asg1452
(lp5235
F91.787999999999997
aF111
asg1454
(lp5236
F119.044
aF106
asg1456
(lp5237
F79.373999999999995
aF110.09999999999999
asg1458
(lp5238
F78.195999999999998
aF108.89
asg1460
(lp5239
F78.195999999999998
aF108.89
asg1462
(lp5240
F119.044
aF106
asg1464
(lp5241
F113.39100000000001
aF110.09999999999999
asg1466
(lp5242
F91.787999999999997
aF111
asg1468
(lp5243
F79.373999999999995
aF110.09999999999999
asg1470
(lp5244
F113.39100000000001
aF110.09999999999999
asg1472
(lp5245
F107.179
aF105
asg1474
(lp5246
F107.179
aF105
asg1476
(lp5247
F79.373999999999995
aF110.09999999999999
asg1478
(lp5248
F79.373999999999995
aF110.09999999999999
asg1480
(lp5249
F91.787999999999997
aF111
asg1482
(lp5250
F78.299000000000007
aF109
asg1484
(lp5251
F107.179
aF105
asg1486
(lp5252
F76.739999999999995
aF107.23999999999999
asg1488
(lp5253
F214.084
aF111.55
asg1490
(lp5254
F131.929
aF107.5
asg1492
(lp5255
F131.929
aF107.5
asg1494
(lp5256
F113.39100000000001
aF110.09999999999999
asg1496
(lp5257
F79.373999999999995
aF110.09999999999999
asg1498
(lp5258
F79.373999999999995
aF110.09999999999999
asg1500
(lp5259
F76.739999999999995
aF107.23999999999999
asg1502
(lp5260
F119.044
aF106
asg1504
(lp5261
F79.373999999999995
aF110.09999999999999
asg1506
(lp5262
F76.739999999999995
aF107.23999999999999
asg1508
(lp5263
F113.39100000000001
aF110.09999999999999
asg1510
(lp5264
F79.373999999999995
aF110.09999999999999
asg1512
(lp5265
F107.179
aF105
asg1514
(lp5266
F78.195999999999998
aF108.89
asg1516
(lp5267
F76.739999999999995
aF107.23999999999999
asg1518
(lp5268
F113.39100000000001
aF110.09999999999999
asg1520
(lp5269
F91.787999999999997
aF111
asg1522
(lp5270
F107.179
aF105
asg1524
(lp5271
F107.179
aF105
asg1526
(lp5272
F79.373999999999995
aF110.09999999999999
asg1528
(lp5273
F79.373999999999995
aF110.09999999999999
asg1530
(lp5274
F79.373999999999995
aF110.09999999999999
assg701
(dp5275
g1403
(lp5276
F-0.19209999999999999
aF1.7649999999999999
aF-0.65000000000000002
asg1398
(lp5277
F-0.032000000000000001
aF2
aF0.050000000000000003
asg1430
(lp5278
F-0.19209999999999999
aF1.7649999999999999
aF-0.65000000000000002
asg1436
(lp5279
F-0.044999999999999998
aF1.3400000000000001
aF0.10000000000000001
asg1380
(lp5280
F-0.032000000000000001
aF2
aF0.14999999999999999
asg1415
(lp5281
F-0.044999999999999998
aF1.3400000000000001
aF0.10000000000000001
asg1394
(lp5282
F-0.032000000000000001
aF2
aF0.14999999999999999
asg1381
(lp5283
F-0.032000000000000001
aF2
aF0.10000000000000001
asg1444
(lp5284
F-0.044999999999999998
aF1.3400000000000001
aF0.10000000000000001
asg1385
(lp5285
F-0.044999999999999998
aF1.3400000000000001
aF0.10000000000000001
asg1391
(lp5286
F-0.19209999999999999
aF1.7649999999999999
aF-0.5
asS'H'
(lp5287
F-0.029999999999999999
aF1.3582000000000001
aF0
asg1422
(lp5288
F-0.044999999999999998
aF1.3400000000000001
aF0.10000000000000001
asg1402
(lp5289
F-0.045999999999999999
aF0.22450000000000001
aF0.40000000000000002
asg1388
(lp5290
F-0.19209999999999999
aF1.7649999999999999
aF-0.40000000000000002
asg1441
(lp5291
F-0.044999999999999998
aF1.3400000000000001
aF0.10000000000000001
asg1399
(lp5292
F-0.044999999999999998
aF1.3400000000000001
aF0.10000000000000001
asg1433
(lp5293
F-0.045999999999999999
aF0.22450000000000001
aF0.40000000000000002
asg1395
(lp5294
F-0.032000000000000001
aF2
aF0.14999999999999999
asg1427
(lp5295
F-0.045999999999999999
aF0.22450000000000001
aF0.40000000000000002
asg1406
(lp5296
F-0.19209999999999999
aF1.7649999999999999
aF-0.65000000000000002
asg1384
(lp5297
F-0.032000000000000001
aF2
aF0.34999999999999998
assg725
g1555
sg727
(dp5298
g1557
(lp5299
F0.14999999999999999
aI3
aF180
asg1559
(lp5300
F0.10000000000000001
aI3
aF180
asg1561
(lp5301
F0.14999999999999999
aI3
aF180
asg1563
(lp5302
F0.14999999999999999
aI3
aF180
asg1565
(lp5303
F0.14999999999999999
aI3
aF180
asg1567
(lp5304
F-1.8400000000000001
aI1
aF180
asg1569
(lp5305
F0.14999999999999999
aI3
aF180
asg1571
(lp5306
F0.14999999999999999
aI3
aF180
asg1573
(lp5307
F-1.1499999999999999
aI1
aF180
asg1575
(lp5308
F0.14999999999999999
aI3
aF180
asg1577
(lp5309
F0.14999999999999999
aI3
aF180
asg1579
(lp5310
F0.59999999999999998
aI1
aF180
asg1581
(lp5311
F0.14000000000000001
aI3
aF180
asg1583
(lp5312
F0.14999999999999999
aI3
aF180
asg1585
(lp5313
F0.14999999999999999
aI3
aF180
asg1587
(lp5314
F0.82999999999999996
aI1
aF180
asg1589
(lp5315
F-1.6299999999999999
aI1
aF180
asg1591
(lp5316
F0.14000000000000001
aI3
aF180
asg1593
(lp5317
F0.14000000000000001
aI3
aF180
asg1595
(lp5318
F0.14999999999999999
aI3
aF180
asg1597
(lp5319
F0.14999999999999999
aI3
aF180
asg1599
(lp5320
F0.14000000000000001
aI3
aF180
asg1601
(lp5321
F0.14999999999999999
aI3
aF180
asg1603
(lp5322
F0.14999999999999999
aI3
aF180
asg1605
(lp5323
F-1.8400000000000001
aI1
aF180
asg1607
(lp5324
F0.14999999999999999
aI3
aF180
asg1609
(lp5325
F0.14000000000000001
aI3
aF180
asg1611
(lp5326
F0.14999999999999999
aI3
aF180
asg1613
(lp5327
F0.14999999999999999
aI3
aF180
asg1615
(lp5328
F0.82999999999999996
aI1
aF180
asg1617
(lp5329
F-1.8400000000000001
aI1
aF180
asg1619
(lp5330
F0.14999999999999999
aI3
aF180
asg1621
(lp5331
F0.14000000000000001
aI3
aF180
asg1623
(lp5332
F0.14999999999999999
aI3
aF180
asg1625
(lp5333
F0.14000000000000001
aI3
aF180
asg1627
(lp5334
F0.14999999999999999
aI3
aF180
asg1629
(lp5335
F0.14999999999999999
aI3
aF180
asg1631
(lp5336
F0.59999999999999998
aF1
aF180
asg1633
(lp5337
F0.14000000000000001
aI3
aF180
asg1635
(lp5338
F0.14999999999999999
aI3
aF180
asg1637
(lp5339
F0.14999999999999999
aI3
aF180
asg1639
(lp5340
F-1.1499999999999999
aI1
aF180
asg1641
(lp5341
F0.82999999999999996
aI1
aF180
asg1643
(lp5342
F0.14999999999999999
aI3
aF180
asg1645
(lp5343
F-1.8400000000000001
aI1
aF180
asg1647
(lp5344
F0
aI0
aF0
asg1649
(lp5345
F0.14999999999999999
aI3
aF180
asg1651
(lp5346
F0.14000000000000001
aI3
aF180
asg1653
(lp5347
F0.14999999999999999
aI3
aF180
asg1655
(lp5348
F0.14999999999999999
aI3
aF180
asg1657
(lp5349
F0
aI0
aF0
asg1659
(lp5350
F0.14999999999999999
aI3
aF180
asg1661
(lp5351
F0.59999999999999998
aI1
aF180
asg1663
(lp5352
F0.14999999999999999
aI3
aF180
asg1665
(lp5353
F0.59999999999999998
aI1
aF180
asg1667
(lp5354
F0.59999999999999998
aI1
aF180
asg1669
(lp5355
F0.14999999999999999
aI3
aF180
asg1671
(lp5356
F0.14999999999999999
aI3
aF180
asg1673
(lp5357
F0.14999999999999999
aI3
aF180
asg1675
(lp5358
F0.14999999999999999
aI3
aF180
asg1677
(lp5359
F0.14000000000000001
aI3
aF180
asg1679
(lp5360
F0.14999999999999999
aI3
aF180
asg1681
(lp5361
F0.14999999999999999
aI3
aF180
assbsg855
g5115
sbasssS'trad'
p5362
Nsg444
(dp5363
sS'molNameIndex'
p5364
(dp5365
g2709
I1
sg1282
I1
sg446
I1
sg4509
I1
sg5114
I1
sg2105
I1
sg3904
I1
sg3302
I1
ssS'modificationTime'
p5366
F2.4718680000000002
sS'atomOrder'
p5367
(lp5368
sS'solvents'
p5369
(dp5370
sg447
(dp5371
g4
(dp5372
sg856
(dp5373
sg1683
(dp5374
sg2360
(dp5375
sg2953
(dp5376
sg3545
(dp5377
sg4152
(dp5378
sg4757
(dp5379
ssS'mixName'
p5380
S'CelluloseFiber_PABA_IAPP'
p5381
sg855
g5371
s.